     VMA      LMA     Size Align Out     In      Symbol
       0        0        0     1 _stext = ORIGIN ( RAM ) + 0x420
   a0000    a0000     4700    64 .ram_nc
   a0000    a0000        0     1         __ram_nc_start = .
   a0000    a0000      300    64         /home/ferrite/rusty1968/initiative/aspeed-rust/target/thumbv7em-none-eabihf/release/deps/libaspeed_ddk-ba190f65fcc992d2.rlib(aspeed_ddk-ba190f65fcc992d2.aspeed_ddk.609ead220c3d04df-cgu.08.rcgu.o):(.ram_nc)
   a0000    a0000      300     1                 aspeed_ddk::hace_controller::SHARED_HASH_CTX::hd5debb0f3b7c4a33
   a0300    a0300     4400    32         /home/ferrite/rusty1968/initiative/aspeed-rust/target/thumbv7em-none-eabihf/release/deps/libaspeed_ddk-ba190f65fcc992d2.rlib(aspeed_ddk-ba190f65fcc992d2.aspeed_ddk.609ead220c3d04df-cgu.02.rcgu.o):(.ram_nc)
   a0300    a0300     4000     1                 aspeed_ddk::i2c::ast1060_i2c::MDMA_BUFFER::h3afb7446f04eee33
   a4300    a4300      400     1                 aspeed_ddk::i2c::ast1060_i2c::SDMA_BUFFER::h27a32b1f8816da24
   a4700    a4700        0     1         __ram_nc_end = .
   a4700    a4700        0     1 PROVIDE ( NonMaskableInt = DefaultHandler )
   a4700    a4700        0     1 PROVIDE ( MemoryManagement = DefaultHandler )
   a4700    a4700        0     1 PROVIDE ( BusFault = DefaultHandler )
   a4700    a4700        0     1 PROVIDE ( UsageFault = DefaultHandler )
   a4700    a4700        0     1 PROVIDE ( SVCall = DefaultHandler )
   a4700    a4700        0     1 PROVIDE ( DebugMonitor = DefaultHandler )
   a4700    a4700        0     1 PROVIDE ( PendSV = DefaultHandler )
   a4700    a4700        0     1 PROVIDE ( SysTick = DefaultHandler )
   a4700    a4700        0     1 PROVIDE ( DefaultHandler = DefaultHandler_ )
   a4700    a4700        0     1 PROVIDE ( HardFault = HardFault_ )
   a4700    a4700        0     1 PROVIDE ( _stack_start = ORIGIN ( RAM ) + LENGTH ( RAM ) )
       0        0      400     4 .vector_table
       0        0        4     1         LONG ( _stack_start )
       4        4        4     4         /home/ferrite/rusty1968/initiative/aspeed-rust/target/thumbv7em-none-eabihf/release/deps/libcortex_m_rt-7f0c5500b9abbdfd.rlib(cortex_m_rt-7f0c5500b9abbdfd.cortex_m_rt.6f21be2bbd52da44-cgu.0.rcgu.o):(.vector_table.reset_vector)
       4        4        4     1                 __RESET_VECTOR
       8        8        0     1         __reset_vector = .
       8        8       38     4         /home/ferrite/rusty1968/initiative/aspeed-rust/target/thumbv7em-none-eabihf/release/deps/libcortex_m_rt-7f0c5500b9abbdfd.rlib(cortex_m_rt-7f0c5500b9abbdfd.cortex_m_rt.6f21be2bbd52da44-cgu.0.rcgu.o):(.vector_table.exceptions)
       8        8       38     1                 __EXCEPTIONS
      40       40        0     1         __eexceptions = .
      40       40      3c0     4         /home/ferrite/rusty1968/initiative/aspeed-rust/target/thumbv7em-none-eabihf/release/deps/libast1060_pac-5c3de1007aac7e1c.rlib(ast1060_pac-5c3de1007aac7e1c.ast1060_pac.c6d9d37f8e245957-cgu.0.rcgu.o):(.vector_table.interrupts)
      40       40      3c0     1                 __INTERRUPTS
     420      420     bca0     4 .text
     420      420       84     2         /home/ferrite/rusty1968/initiative/aspeed-rust/target/thumbv7em-none-eabihf/release/deps/libcortex_m_rt-7f0c5500b9abbdfd.rlib(cortex_m_rt-7f0c5500b9abbdfd.cortex_m_rt.6f21be2bbd52da44-cgu.0.rcgu.o):(.Reset)
     420      420        0     1                 $t
     421      421       84     1                 Reset
     4a4      4a4      68e     2         /home/ferrite/rusty1968/initiative/aspeed-rust/target/thumbv7em-none-eabihf/release/deps/aspeed_ddk-9593e973eaaa5586.aspeed_ddk.875e341dad0a8fe1-cgu.0.rcgu.o:(.text._ZN10aspeed_ddk5tests10functional10ecdsa_test15run_ecdsa_tests17hcb6bf75ee4ab7a5dE)
     4a4      4a4        0     1                 $t
     4a5      4a5      68e     1                 aspeed_ddk::tests::functional::ecdsa_test::run_ecdsa_tests::hcb6bf75ee4ab7a5d
     b32      b32       24     2         /home/ferrite/rusty1968/initiative/aspeed-rust/target/thumbv7em-none-eabihf/release/deps/aspeed_ddk-9593e973eaaa5586.aspeed_ddk.875e341dad0a8fe1-cgu.0.rcgu.o:(.text._ZN42_$LT$$RF$T$u20$as$u20$core..fmt..Debug$GT$3fmt17h0447519422a59031E)
     b32      b32        0     1                 $t
     b33      b33       24     1                 _$LT$$RF$T$u20$as$u20$core..fmt..Debug$GT$::fmt::h0447519422a59031
     b56      b56       10     2         /home/ferrite/rusty1968/initiative/aspeed-rust/target/thumbv7em-none-eabihf/release/deps/aspeed_ddk-9593e973eaaa5586.aspeed_ddk.875e341dad0a8fe1-cgu.0.rcgu.o:(.text._ZN42_$LT$$RF$T$u20$as$u20$core..fmt..Debug$GT$3fmt17h465e8978082958a9E)
     b56      b56        0     1                 $t
     b57      b57       10     1                 _$LT$$RF$T$u20$as$u20$core..fmt..Debug$GT$::fmt::h465e8978082958a9
     b66      b66       18     2         /home/ferrite/rusty1968/initiative/aspeed-rust/target/thumbv7em-none-eabihf/release/deps/aspeed_ddk-9593e973eaaa5586.aspeed_ddk.875e341dad0a8fe1-cgu.0.rcgu.o:(.text._ZN42_$LT$$RF$T$u20$as$u20$core..fmt..Debug$GT$3fmt17h497587f578f61f77E)
     b66      b66        0     1                 $t
     b67      b67       18     1                 _$LT$$RF$T$u20$as$u20$core..fmt..Debug$GT$::fmt::h497587f578f61f77
     b7e      b7e       24     2         /home/ferrite/rusty1968/initiative/aspeed-rust/target/thumbv7em-none-eabihf/release/deps/aspeed_ddk-9593e973eaaa5586.aspeed_ddk.875e341dad0a8fe1-cgu.0.rcgu.o:(.text._ZN42_$LT$$RF$T$u20$as$u20$core..fmt..Debug$GT$3fmt17h4ecd398eebaf10f2E)
     b7e      b7e        0     1                 $t
     b7f      b7f       24     1                 _$LT$$RF$T$u20$as$u20$core..fmt..Debug$GT$::fmt::h4ecd398eebaf10f2
     ba2      ba2       18     2         /home/ferrite/rusty1968/initiative/aspeed-rust/target/thumbv7em-none-eabihf/release/deps/aspeed_ddk-9593e973eaaa5586.aspeed_ddk.875e341dad0a8fe1-cgu.0.rcgu.o:(.text._ZN42_$LT$$RF$T$u20$as$u20$core..fmt..Debug$GT$3fmt17h684b695747850fd3E)
     ba2      ba2        0     1                 $t
     ba3      ba3       18     1                 _$LT$$RF$T$u20$as$u20$core..fmt..Debug$GT$::fmt::h684b695747850fd3
     bba      bba       46     2         /home/ferrite/rusty1968/initiative/aspeed-rust/target/thumbv7em-none-eabihf/release/deps/aspeed_ddk-9593e973eaaa5586.aspeed_ddk.875e341dad0a8fe1-cgu.0.rcgu.o:(.text._ZN42_$LT$$RF$T$u20$as$u20$core..fmt..Debug$GT$3fmt17hae4c3b27d2b1640cE)
     bba      bba        0     1                 $t
     bbb      bbb       46     1                 _$LT$$RF$T$u20$as$u20$core..fmt..Debug$GT$::fmt::hae4c3b27d2b1640c
     c00      c00       48     2         /home/ferrite/rusty1968/initiative/aspeed-rust/target/thumbv7em-none-eabihf/release/deps/aspeed_ddk-9593e973eaaa5586.aspeed_ddk.875e341dad0a8fe1-cgu.0.rcgu.o:(.text._ZN42_$LT$$RF$T$u20$as$u20$core..fmt..Debug$GT$3fmt17hc23419efbcea43c9E)
     c00      c00        0     1                 $t
     c01      c01       48     1                 _$LT$$RF$T$u20$as$u20$core..fmt..Debug$GT$::fmt::hc23419efbcea43c9
     c48      c48        a     2         /home/ferrite/rusty1968/initiative/aspeed-rust/target/thumbv7em-none-eabihf/release/deps/aspeed_ddk-9593e973eaaa5586.aspeed_ddk.875e341dad0a8fe1-cgu.0.rcgu.o:(.text._ZN44_$LT$$RF$T$u20$as$u20$core..fmt..Display$GT$3fmt17ha1650d27a718d949E)
     c48      c48        0     1                 $t
     c49      c49        a     1                 _$LT$$RF$T$u20$as$u20$core..fmt..Display$GT$::fmt::ha1650d27a718d949
     c52      c52       fc     2         /home/ferrite/rusty1968/initiative/aspeed-rust/target/thumbv7em-none-eabihf/release/deps/aspeed_ddk-9593e973eaaa5586.aspeed_ddk.875e341dad0a8fe1-cgu.0.rcgu.o:(.text._ZN4core3fmt5Write10write_char17hf59c7f94bf770402E.llvm.11022154256357222491)
     c52      c52        0     1                 $t
     c53      c53       fc     1                 core::fmt::Write::write_char::hf59c7f94bf770402 (.llvm.11022154256357222491)
     d4e      d4e        e     2         /home/ferrite/rusty1968/initiative/aspeed-rust/target/thumbv7em-none-eabihf/release/deps/aspeed_ddk-9593e973eaaa5586.aspeed_ddk.875e341dad0a8fe1-cgu.0.rcgu.o:(.text._ZN4core3fmt5Write9write_fmt17h1e038e241271fe23E.llvm.11022154256357222491)
     d4e      d4e        0     1                 $t
     d4f      d4f        e     1                 core::fmt::Write::write_fmt::h1e038e241271fe23 (.llvm.11022154256357222491)
     d5c      d5c       52     2         /home/ferrite/rusty1968/initiative/aspeed-rust/target/thumbv7em-none-eabihf/release/deps/aspeed_ddk-9593e973eaaa5586.aspeed_ddk.875e341dad0a8fe1-cgu.0.rcgu.o:(.text._ZN70_$LT$core..result..Result$LT$T$C$E$GT$$u20$as$u20$core..fmt..Debug$GT$3fmt17h0234eec73739e821E)
     d5c      d5c        0     1                 $t
     d5d      d5d       52     1                 _$LT$core..result..Result$LT$T$C$E$GT$$u20$as$u20$core..fmt..Debug$GT$::fmt::h0234eec73739e821
     dae      dae       40     2         /home/ferrite/rusty1968/initiative/aspeed-rust/target/thumbv7em-none-eabihf/release/deps/aspeed_ddk-9593e973eaaa5586.aspeed_ddk.875e341dad0a8fe1-cgu.0.rcgu.o:(.text._ZN72_$LT$embedded_io..WriteFmtError$LT$E$GT$$u20$as$u20$core..fmt..Debug$GT$3fmt17hb64d22664a32e58cE)
     dae      dae        0     1                 $t
     daf      daf       40     1                 _$LT$embedded_io..WriteFmtError$LT$E$GT$$u20$as$u20$core..fmt..Debug$GT$::fmt::hb64d22664a32e58c
     dee      dee       86     2         /home/ferrite/rusty1968/initiative/aspeed-rust/target/thumbv7em-none-eabihf/release/deps/aspeed_ddk-9593e973eaaa5586.aspeed_ddk.875e341dad0a8fe1-cgu.0.rcgu.o:(.text._ZN84_$LT$embedded_io..Write..write_fmt..Adapter$LT$T$GT$$u20$as$u20$core..fmt..Write$GT$9write_str17h8b5cef22e0db88d1E.llvm.11022154256357222491)
     dee      dee        0     1                 $t
     def      def       86     1                 _$LT$embedded_io..Write..write_fmt..Adapter$LT$T$GT$$u20$as$u20$core..fmt..Write$GT$::write_str::h8b5cef22e0db88d1 (.llvm.11022154256357222491)
     e74      e74      390     2         /home/ferrite/rusty1968/initiative/aspeed-rust/target/thumbv7em-none-eabihf/release/deps/aspeed_ddk-9593e973eaaa5586.aspeed_ddk.875e341dad0a8fe1-cgu.1.rcgu.o:(.text._ZN10aspeed_ddk3rsa18AspeedRsa$LT$D$GT$18aspeed_rsa_trigger17hb2be05113b25f13aE)
     e74      e74        0     1                 $t
     e75      e75      390     1                 aspeed_ddk::rsa::AspeedRsa$LT$D$GT$::aspeed_rsa_trigger::hb2be05113b25f13a
    1204     1204      ae6     2         /home/ferrite/rusty1968/initiative/aspeed-rust/target/thumbv7em-none-eabihf/release/deps/aspeed_ddk-9593e973eaaa5586.aspeed_ddk.875e341dad0a8fe1-cgu.1.rcgu.o:(.text._ZN10aspeed_ddk5tests10functional8rsa_test13run_rsa_tests17hc1f4080f361661e2E)
    1204     1204        0     1                 $t
    1205     1205      ae6     1                 aspeed_ddk::tests::functional::rsa_test::run_rsa_tests::hc1f4080f361661e2
    1cea     1cea       22     2         /home/ferrite/rusty1968/initiative/aspeed-rust/target/thumbv7em-none-eabihf/release/deps/aspeed_ddk-9593e973eaaa5586.aspeed_ddk.875e341dad0a8fe1-cgu.1.rcgu.o:(.text._ZN68_$LT$aspeed_ddk..rsa..RsaDriverError$u20$as$u20$core..fmt..Debug$GT$3fmt17h3deea5e68bbe096fE)
    1cea     1cea        0     1                 $t
    1ceb     1ceb       22     1                 _$LT$aspeed_ddk..rsa..RsaDriverError$u20$as$u20$core..fmt..Debug$GT$::fmt::h3deea5e68bbe096f
    1d0c     1d0c       40     2         /home/ferrite/rusty1968/initiative/aspeed-rust/target/thumbv7em-none-eabihf/release/deps/aspeed_ddk-9593e973eaaa5586.aspeed_ddk.875e341dad0a8fe1-cgu.1.rcgu.o:(.text._ZN72_$LT$embedded_io..WriteFmtError$LT$E$GT$$u20$as$u20$core..fmt..Debug$GT$3fmt17hb64d22664a32e58cE)
    1d0c     1d0c        0     1                 $t
    1d0d     1d0d       40     1                 _$LT$embedded_io..WriteFmtError$LT$E$GT$$u20$as$u20$core..fmt..Debug$GT$::fmt::hb64d22664a32e58c
    1d4c     1d4c       46     2         /home/ferrite/rusty1968/initiative/aspeed-rust/target/thumbv7em-none-eabihf/release/deps/aspeed_ddk-9593e973eaaa5586.aspeed_ddk.875e341dad0a8fe1-cgu.2.rcgu.o:(.text._ZN12embedded_hal5delay7DelayNs8delay_ms17h37999deb4df2f288E)
    1d4c     1d4c        0     1                 $t
    1d4d     1d4d       46     1                 embedded_hal::delay::DelayNs::delay_ms::h37999deb4df2f288
    1d92     1d92       4a     2         /home/ferrite/rusty1968/initiative/aspeed-rust/target/thumbv7em-none-eabihf/release/deps/aspeed_ddk-9593e973eaaa5586.aspeed_ddk.875e341dad0a8fe1-cgu.2.rcgu.o:(.text._ZN12embedded_hal5delay7DelayNs8delay_us17hbed4ba303c3b48b3E)
    1d92     1d92        0     1                 $t
    1d93     1d93       4a     1                 embedded_hal::delay::DelayNs::delay_us::hbed4ba303c3b48b3
    1ddc     1ddc       22     2         /home/ferrite/rusty1968/initiative/aspeed-rust/target/thumbv7em-none-eabihf/release/deps/aspeed_ddk-9593e973eaaa5586.aspeed_ddk.875e341dad0a8fe1-cgu.2.rcgu.o:(.text._ZN69_$LT$aspeed_ddk..uart..Uart16550Error$u20$as$u20$core..fmt..Debug$GT$3fmt17h139c5543cd9345ecE)
    1ddc     1ddc        0     1                 $t
    1ddd     1ddd       22     1                 _$LT$aspeed_ddk..uart..Uart16550Error$u20$as$u20$core..fmt..Debug$GT$::fmt::h139c5543cd9345ec
    1dfe     1dfe       40     2         /home/ferrite/rusty1968/initiative/aspeed-rust/target/thumbv7em-none-eabihf/release/deps/aspeed_ddk-9593e973eaaa5586.aspeed_ddk.875e341dad0a8fe1-cgu.2.rcgu.o:(.text._ZN72_$LT$embedded_io..WriteFmtError$LT$E$GT$$u20$as$u20$core..fmt..Debug$GT$3fmt17hb64d22664a32e58cE)
    1dfe     1dfe        0     1                 $t
    1dff     1dff       40     1                 _$LT$embedded_io..WriteFmtError$LT$E$GT$$u20$as$u20$core..fmt..Debug$GT$::fmt::hb64d22664a32e58c
    1e3e     1e3e       1a     2         /home/ferrite/rusty1968/initiative/aspeed-rust/target/thumbv7em-none-eabihf/release/deps/aspeed_ddk-9593e973eaaa5586.aspeed_ddk.875e341dad0a8fe1-cgu.2.rcgu.o:(.text._ZN71_$LT$aspeed_ddk..DummyDelay$u20$as$u20$embedded_hal..delay..DelayNs$GT$8delay_ns17hb556bb632643a508E)
    1e3e     1e3e        0     1                 $t
    1e3f     1e3f       1a     1                 _$LT$aspeed_ddk..DummyDelay$u20$as$u20$embedded_hal..delay..DelayNs$GT$::delay_ns::hb556bb632643a508
    1e58     1e58      546     2         /home/ferrite/rusty1968/initiative/aspeed-rust/target/thumbv7em-none-eabihf/release/deps/aspeed_ddk-9593e973eaaa5586.aspeed_ddk.875e341dad0a8fe1-cgu.2.rcgu.o:(.text._ZN10aspeed_ddk15validate_digest17h34edd2ed8ac4544aE)
    1e58     1e58        0     1                 $t
    1e59     1e59      546     1                 aspeed_ddk::validate_digest::h34edd2ed8ac4544a
    239e     239e       38     2         /home/ferrite/rusty1968/initiative/aspeed-rust/target/thumbv7em-none-eabihf/release/deps/aspeed_ddk-9593e973eaaa5586.aspeed_ddk.875e341dad0a8fe1-cgu.2.rcgu.o:(.text.__pre_init)
    239e     239e        0     1                 $t
    239f     239f       38     1                 __pre_init
    23d6     23d6        8     2         /home/ferrite/rusty1968/initiative/aspeed-rust/target/thumbv7em-none-eabihf/release/deps/aspeed_ddk-9593e973eaaa5586.aspeed_ddk.875e341dad0a8fe1-cgu.2.rcgu.o:(.text.main)
    23d6     23d6        0     1                 $t
    23d7     23d7        8     1                 main
    23de     23de      af2     2         /home/ferrite/rusty1968/initiative/aspeed-rust/target/thumbv7em-none-eabihf/release/deps/aspeed_ddk-9593e973eaaa5586.aspeed_ddk.875e341dad0a8fe1-cgu.2.rcgu.o:(.text._ZN10aspeed_ddk18__cortex_m_rt_main17h660c8d2f550d75f9E)
    23de     23de        0     1                 $t
    23df     23df      af2     1                 aspeed_ddk::__cortex_m_rt_main::h660c8d2f550d75f9
    2ed0     2ed0        8     2         /home/ferrite/rusty1968/initiative/aspeed-rust/target/thumbv7em-none-eabihf/release/deps/libcortex_m_rt-7f0c5500b9abbdfd.rlib(cortex_m_rt-7f0c5500b9abbdfd.cortex_m_rt.6f21be2bbd52da44-cgu.0.rcgu.o):(.text.ResetTrampoline)
    2ed0     2ed0        0     1                 $t
    2ed1     2ed1        8     1                 ResetTrampoline
    2ed8     2ed8        2     2         /home/ferrite/rusty1968/initiative/aspeed-rust/target/thumbv7em-none-eabihf/release/deps/libcortex_m_rt-7f0c5500b9abbdfd.rlib(cortex_m_rt-7f0c5500b9abbdfd.cortex_m_rt.6f21be2bbd52da44-cgu.0.rcgu.o):(.text.DefaultHandler_)
    2ed8     2ed8        0     1                 $t
    2ed9     2ed9        2     1                 DefaultHandler_
    2eda     2eda        2     2         /home/ferrite/rusty1968/initiative/aspeed-rust/target/thumbv7em-none-eabihf/release/deps/libpanic_halt-274da950309540b1.rlib(panic_halt-274da950309540b1.panic_halt.b268679cc2626f32-cgu.0.rcgu.o):(.text.rust_begin_unwind)
    2eda     2eda        0     1                 $t
    2edb     2edb        2     1                 rust_begin_unwind
    2edc     2edc       24     2         /home/ferrite/rusty1968/initiative/aspeed-rust/target/thumbv7em-none-eabihf/release/deps/libaspeed_ddk-ba190f65fcc992d2.rlib(aspeed_ddk-ba190f65fcc992d2.aspeed_ddk.609ead220c3d04df-cgu.06.rcgu.o):(.text._ZN42_$LT$$RF$T$u20$as$u20$core..fmt..Debug$GT$3fmt17he630022910e8496bE)
    2edc     2edc        0     1                 $t
    2edd     2edd       24     1                 _$LT$$RF$T$u20$as$u20$core..fmt..Debug$GT$::fmt::he630022910e8496b
    2f00     2f00       2a     2         /home/ferrite/rusty1968/initiative/aspeed-rust/target/thumbv7em-none-eabihf/release/deps/libaspeed_ddk-ba190f65fcc992d2.rlib(aspeed_ddk-ba190f65fcc992d2.aspeed_ddk.609ead220c3d04df-cgu.06.rcgu.o):(.text._ZN70_$LT$core..num..error..TryFromIntError$u20$as$u20$core..fmt..Debug$GT$3fmt17h8c7e68eb481133a5E.llvm.16036159247860191969)
    2f00     2f00        0     1                 $t
    2f01     2f01       2a     1                 _$LT$core..num..error..TryFromIntError$u20$as$u20$core..fmt..Debug$GT$::fmt::h8c7e68eb481133a5 (.llvm.16036159247860191969)
    2f2a     2f2a       a6     2         /home/ferrite/rusty1968/initiative/aspeed-rust/target/thumbv7em-none-eabihf/release/deps/libaspeed_ddk-ba190f65fcc992d2.rlib(aspeed_ddk-ba190f65fcc992d2.aspeed_ddk.609ead220c3d04df-cgu.06.rcgu.o):(.text._ZN10aspeed_ddk4uart14UartController4init17h644bd8c8bae7790aE)
    2f2a     2f2a        0     1                 $t
    2f2b     2f2b       a6     1                 aspeed_ddk::uart::UartController::init::h644bd8c8bae7790a
    2fd0     2fd0       4a     2         /home/ferrite/rusty1968/initiative/aspeed-rust/target/thumbv7em-none-eabihf/release/deps/libaspeed_ddk-ba190f65fcc992d2.rlib(aspeed_ddk-ba190f65fcc992d2.aspeed_ddk.609ead220c3d04df-cgu.06.rcgu.o):(.text._ZN71_$LT$aspeed_ddk..uart..UartController$u20$as$u20$embedded_io..Write$GT$5write17hf922f9f2c0e75176E)
    2fd0     2fd0        0     1                 $t
    2fd1     2fd1       4a     1                 _$LT$aspeed_ddk..uart..UartController$u20$as$u20$embedded_io..Write$GT$::write::hf922f9f2c0e75176
    301a     301a       4a     2         /home/ferrite/rusty1968/initiative/aspeed-rust/target/thumbv7em-none-eabihf/release/deps/libaspeed_ddk-ba190f65fcc992d2.rlib(aspeed_ddk-ba190f65fcc992d2.aspeed_ddk.609ead220c3d04df-cgu.07.rcgu.o):(.text._ZN12embedded_hal5delay7DelayNs8delay_us17ha78ee3733be85c33E)
    301a     301a        0     1                 $t
    301b     301b       4a     1                 embedded_hal::delay::DelayNs::delay_us::ha78ee3733be85c33
    3064     3064        e     2         /home/ferrite/rusty1968/initiative/aspeed-rust/target/thumbv7em-none-eabihf/release/deps/libaspeed_ddk-ba190f65fcc992d2.rlib(aspeed_ddk-ba190f65fcc992d2.aspeed_ddk.609ead220c3d04df-cgu.07.rcgu.o):(.text._ZN4core3fmt5Write9write_fmt17h8d23e35fc13a6b38E)
    3064     3064        0     1                 $t
    3065     3065        e     1                 core::fmt::Write::write_fmt::h8d23e35fc13a6b38
    3072     3072        2     2         /home/ferrite/rusty1968/initiative/aspeed-rust/target/thumbv7em-none-eabihf/release/deps/libaspeed_ddk-ba190f65fcc992d2.rlib(aspeed_ddk-ba190f65fcc992d2.aspeed_ddk.609ead220c3d04df-cgu.07.rcgu.o):(.text._ZN4core3ptr61drop_in_place$LT$heapless..string..String$LT$64_usize$GT$$GT$17h6baa6e2764467e0eE)
    3072     3072        0     1                 $t
    3073     3073        2     1                 core::ptr::drop_in_place$LT$heapless..string..String$LT$64_usize$GT$$GT$::h6baa6e2764467e0e
    3074     3074      142     2         /home/ferrite/rusty1968/initiative/aspeed-rust/target/thumbv7em-none-eabihf/release/deps/libaspeed_ddk-ba190f65fcc992d2.rlib(aspeed_ddk-ba190f65fcc992d2.aspeed_ddk.609ead220c3d04df-cgu.07.rcgu.o):(.text._ZN70_$LT$heapless..string..String$LT$_$GT$$u20$as$u20$core..fmt..Write$GT$10write_char17he08a45360d479858E)
    3074     3074        0     1                 $t
    3075     3075      142     1                 _$LT$heapless..string..String$LT$_$GT$$u20$as$u20$core..fmt..Write$GT$::write_char::he08a45360d479858
    31b6     31b6       a6     2         /home/ferrite/rusty1968/initiative/aspeed-rust/target/thumbv7em-none-eabihf/release/deps/libaspeed_ddk-ba190f65fcc992d2.rlib(aspeed_ddk-ba190f65fcc992d2.aspeed_ddk.609ead220c3d04df-cgu.07.rcgu.o):(.text._ZN70_$LT$heapless..string..String$LT$_$GT$$u20$as$u20$core..fmt..Write$GT$9write_str17heca5f5175b2a7ef9E)
    31b6     31b6        0     1                 $t
    31b7     31b7       a6     1                 _$LT$heapless..string..String$LT$_$GT$$u20$as$u20$core..fmt..Write$GT$::write_str::heca5f5175b2a7ef9
    325c     325c       26     2         /home/ferrite/rusty1968/initiative/aspeed-rust/target/thumbv7em-none-eabihf/release/deps/libaspeed_ddk-ba190f65fcc992d2.rlib(aspeed_ddk-ba190f65fcc992d2.aspeed_ddk.609ead220c3d04df-cgu.07.rcgu.o):(.text._ZN79_$LT$aspeed_ddk..common..DummyDelay$u20$as$u20$embedded_hal..delay..DelayNs$GT$8delay_ns17hd8c4e13e30a91e1dE)
    325c     325c        0     1                 $t
    325d     325d       26     1                 _$LT$aspeed_ddk..common..DummyDelay$u20$as$u20$embedded_hal..delay..DelayNs$GT$::delay_ns::hd8c4e13e30a91e1d
    3282     3282      19c     2         /home/ferrite/rusty1968/initiative/aspeed-rust/target/thumbv7em-none-eabihf/release/deps/libaspeed_ddk-ba190f65fcc992d2.rlib(aspeed_ddk-ba190f65fcc992d2.aspeed_ddk.609ead220c3d04df-cgu.07.rcgu.o):(.text._ZN156_$LT$aspeed_ddk..hash_owned..OwnedDigestContext$LT$openprot_hal_blocking..digest..Sha2_256$GT$$u20$as$u20$openprot_hal_blocking..digest..owned..DigestOp$GT$6update17hd6f5b18a9141c561E)
    3282     3282        0     1                 $t
    3283     3283      19c     1                 _$LT$aspeed_ddk..hash_owned..OwnedDigestContext$LT$openprot_hal_blocking..digest..Sha2_256$GT$$u20$as$u20$openprot_hal_blocking..digest..owned..DigestOp$GT$::update::hd6f5b18a9141c561
    341e     341e      19e     2         /home/ferrite/rusty1968/initiative/aspeed-rust/target/thumbv7em-none-eabihf/release/deps/libaspeed_ddk-ba190f65fcc992d2.rlib(aspeed_ddk-ba190f65fcc992d2.aspeed_ddk.609ead220c3d04df-cgu.07.rcgu.o):(.text._ZN156_$LT$aspeed_ddk..hash_owned..OwnedDigestContext$LT$openprot_hal_blocking..digest..Sha2_256$GT$$u20$as$u20$openprot_hal_blocking..digest..owned..DigestOp$GT$8finalize17h6f90dfaa67cf2087E)
    341e     341e        0     1                 $t
    341f     341f      19e     1                 _$LT$aspeed_ddk..hash_owned..OwnedDigestContext$LT$openprot_hal_blocking..digest..Sha2_256$GT$$u20$as$u20$openprot_hal_blocking..digest..owned..DigestOp$GT$::finalize::h6f90dfaa67cf2087
    35bc     35bc       32     2         /home/ferrite/rusty1968/initiative/aspeed-rust/target/thumbv7em-none-eabihf/release/deps/libaspeed_ddk-ba190f65fcc992d2.rlib(aspeed_ddk-ba190f65fcc992d2.aspeed_ddk.609ead220c3d04df-cgu.07.rcgu.o):(.text._ZN156_$LT$aspeed_ddk..hash_owned..OwnedDigestContext$LT$openprot_hal_blocking..digest..Sha2_256$GT$$u20$as$u20$openprot_hal_blocking..digest..owned..DigestOp$GT$6cancel17h7eb245f5f0ecc12bE)
    35bc     35bc        0     1                 $t
    35bd     35bd       32     1                 _$LT$aspeed_ddk..hash_owned..OwnedDigestContext$LT$openprot_hal_blocking..digest..Sha2_256$GT$$u20$as$u20$openprot_hal_blocking..digest..owned..DigestOp$GT$::cancel::h7eb245f5f0ecc12b
    35bd     35bd       32     1                 _$LT$aspeed_ddk..hash_owned..OwnedDigestContext$LT$openprot_hal_blocking..digest..Sha2_384$GT$$u20$as$u20$openprot_hal_blocking..digest..owned..DigestOp$GT$::cancel::h2e2dd0e6930b0f67
    35bd     35bd       32     1                 _$LT$aspeed_ddk..hash_owned..OwnedDigestContext$LT$openprot_hal_blocking..digest..Sha2_512$GT$$u20$as$u20$openprot_hal_blocking..digest..owned..DigestOp$GT$::cancel::h4a5f85286577f9b2
    35ee     35ee      19c     2         /home/ferrite/rusty1968/initiative/aspeed-rust/target/thumbv7em-none-eabihf/release/deps/libaspeed_ddk-ba190f65fcc992d2.rlib(aspeed_ddk-ba190f65fcc992d2.aspeed_ddk.609ead220c3d04df-cgu.07.rcgu.o):(.text._ZN156_$LT$aspeed_ddk..hash_owned..OwnedDigestContext$LT$openprot_hal_blocking..digest..Sha2_384$GT$$u20$as$u20$openprot_hal_blocking..digest..owned..DigestOp$GT$6update17hf43d29ee98b071dbE)
    35ee     35ee        0     1                 $t
    35ef     35ef      19c     1                 _$LT$aspeed_ddk..hash_owned..OwnedDigestContext$LT$openprot_hal_blocking..digest..Sha2_384$GT$$u20$as$u20$openprot_hal_blocking..digest..owned..DigestOp$GT$::update::hf43d29ee98b071db
    378a     378a      1a2     2         /home/ferrite/rusty1968/initiative/aspeed-rust/target/thumbv7em-none-eabihf/release/deps/libaspeed_ddk-ba190f65fcc992d2.rlib(aspeed_ddk-ba190f65fcc992d2.aspeed_ddk.609ead220c3d04df-cgu.07.rcgu.o):(.text._ZN156_$LT$aspeed_ddk..hash_owned..OwnedDigestContext$LT$openprot_hal_blocking..digest..Sha2_384$GT$$u20$as$u20$openprot_hal_blocking..digest..owned..DigestOp$GT$8finalize17h2cda83421bf3c537E)
    378a     378a        0     1                 $t
    378b     378b      1a2     1                 _$LT$aspeed_ddk..hash_owned..OwnedDigestContext$LT$openprot_hal_blocking..digest..Sha2_384$GT$$u20$as$u20$openprot_hal_blocking..digest..owned..DigestOp$GT$::finalize::h2cda83421bf3c537
    392c     392c      19c     2         /home/ferrite/rusty1968/initiative/aspeed-rust/target/thumbv7em-none-eabihf/release/deps/libaspeed_ddk-ba190f65fcc992d2.rlib(aspeed_ddk-ba190f65fcc992d2.aspeed_ddk.609ead220c3d04df-cgu.07.rcgu.o):(.text._ZN156_$LT$aspeed_ddk..hash_owned..OwnedDigestContext$LT$openprot_hal_blocking..digest..Sha2_512$GT$$u20$as$u20$openprot_hal_blocking..digest..owned..DigestOp$GT$6update17h9c3224288e458456E)
    392c     392c        0     1                 $t
    392d     392d      19c     1                 _$LT$aspeed_ddk..hash_owned..OwnedDigestContext$LT$openprot_hal_blocking..digest..Sha2_512$GT$$u20$as$u20$openprot_hal_blocking..digest..owned..DigestOp$GT$::update::h9c3224288e458456
    3ac8     3ac8      1a8     2         /home/ferrite/rusty1968/initiative/aspeed-rust/target/thumbv7em-none-eabihf/release/deps/libaspeed_ddk-ba190f65fcc992d2.rlib(aspeed_ddk-ba190f65fcc992d2.aspeed_ddk.609ead220c3d04df-cgu.07.rcgu.o):(.text._ZN156_$LT$aspeed_ddk..hash_owned..OwnedDigestContext$LT$openprot_hal_blocking..digest..Sha2_512$GT$$u20$as$u20$openprot_hal_blocking..digest..owned..DigestOp$GT$8finalize17h7b3ccea47764599dE)
    3ac8     3ac8        0     1                 $t
    3ac9     3ac9      1a8     1                 _$LT$aspeed_ddk..hash_owned..OwnedDigestContext$LT$openprot_hal_blocking..digest..Sha2_512$GT$$u20$as$u20$openprot_hal_blocking..digest..owned..DigestOp$GT$::finalize::h7b3ccea47764599d
    3c70     3c70      14a     2         /home/ferrite/rusty1968/initiative/aspeed-rust/target/thumbv7em-none-eabihf/release/deps/libaspeed_ddk-ba190f65fcc992d2.rlib(aspeed_ddk-ba190f65fcc992d2.aspeed_ddk.609ead220c3d04df-cgu.08.rcgu.o):(.text._ZN10aspeed_ddk15hace_controller14HaceController12fill_padding17he494239be9d4ac90E)
    3c70     3c70        0     1                 $t
    3c71     3c71      14a     1                 aspeed_ddk::hace_controller::HaceController::fill_padding::he494239be9d4ac90
    3dba     3dba       4a     2         /home/ferrite/rusty1968/initiative/aspeed-rust/target/thumbv7em-none-eabihf/release/deps/libaspeed_ddk-ba190f65fcc992d2.rlib(aspeed_ddk-ba190f65fcc992d2.aspeed_ddk.609ead220c3d04df-cgu.08.rcgu.o):(.text._ZN10aspeed_ddk10hash_owned169_$LT$impl$u20$openprot_hal_blocking..digest..owned..DigestInit$LT$openprot_hal_blocking..digest..Sha2_256$GT$$u20$for$u20$aspeed_ddk..hace_controller..HaceController$GT$4init17hcdbf221fe2509663E)
    3dba     3dba        0     1                 $t
    3dbb     3dbb       4a     1                 aspeed_ddk::hash_owned::_$LT$impl$u20$openprot_hal_blocking..digest..owned..DigestInit$LT$openprot_hal_blocking..digest..Sha2_256$GT$$u20$for$u20$aspeed_ddk..hace_controller..HaceController$GT$::init::hcdbf221fe2509663
    3e04     3e04       58     2         /home/ferrite/rusty1968/initiative/aspeed-rust/target/thumbv7em-none-eabihf/release/deps/libaspeed_ddk-ba190f65fcc992d2.rlib(aspeed_ddk-ba190f65fcc992d2.aspeed_ddk.609ead220c3d04df-cgu.08.rcgu.o):(.text._ZN10aspeed_ddk10hash_owned169_$LT$impl$u20$openprot_hal_blocking..digest..owned..DigestInit$LT$openprot_hal_blocking..digest..Sha2_384$GT$$u20$for$u20$aspeed_ddk..hace_controller..HaceController$GT$4init17h5accfd6e723c54f6E)
    3e04     3e04        0     1                 $t
    3e05     3e05       58     1                 aspeed_ddk::hash_owned::_$LT$impl$u20$openprot_hal_blocking..digest..owned..DigestInit$LT$openprot_hal_blocking..digest..Sha2_384$GT$$u20$for$u20$aspeed_ddk..hace_controller..HaceController$GT$::init::h5accfd6e723c54f6
    3e5c     3e5c       58     2         /home/ferrite/rusty1968/initiative/aspeed-rust/target/thumbv7em-none-eabihf/release/deps/libaspeed_ddk-ba190f65fcc992d2.rlib(aspeed_ddk-ba190f65fcc992d2.aspeed_ddk.609ead220c3d04df-cgu.08.rcgu.o):(.text._ZN10aspeed_ddk10hash_owned169_$LT$impl$u20$openprot_hal_blocking..digest..owned..DigestInit$LT$openprot_hal_blocking..digest..Sha2_512$GT$$u20$for$u20$aspeed_ddk..hace_controller..HaceController$GT$4init17hb711cfa9b4de0b17E)
    3e5c     3e5c        0     1                 $t
    3e5d     3e5d       58     1                 aspeed_ddk::hash_owned::_$LT$impl$u20$openprot_hal_blocking..digest..owned..DigestInit$LT$openprot_hal_blocking..digest..Sha2_512$GT$$u20$for$u20$aspeed_ddk..hace_controller..HaceController$GT$::init::hb711cfa9b4de0b17
    3eb4     3eb4      b08     2         /home/ferrite/rusty1968/initiative/aspeed-rust/target/thumbv7em-none-eabihf/release/deps/libaspeed_ddk-ba190f65fcc992d2.rlib(aspeed_ddk-ba190f65fcc992d2.aspeed_ddk.609ead220c3d04df-cgu.09.rcgu.o):(.text._ZN10aspeed_ddk5tests10functional9gpio_test10test_gpioa17h24b5990036e0fa40E)
    3eb4     3eb4        0     1                 $t
    3eb5     3eb5      b08     1                 aspeed_ddk::tests::functional::gpio_test::test_gpioa::h24b5990036e0fa40
    49bc     49bc       40     2         /home/ferrite/rusty1968/initiative/aspeed-rust/target/thumbv7em-none-eabihf/release/deps/libaspeed_ddk-ba190f65fcc992d2.rlib(aspeed_ddk-ba190f65fcc992d2.aspeed_ddk.609ead220c3d04df-cgu.10.rcgu.o):(.text._ZN72_$LT$embedded_io..WriteFmtError$LT$E$GT$$u20$as$u20$core..fmt..Debug$GT$3fmt17h1cae2e4098fd9c7aE)
    49bc     49bc        0     1                 $t
    49bd     49bd       40     1                 _$LT$embedded_io..WriteFmtError$LT$E$GT$$u20$as$u20$core..fmt..Debug$GT$::fmt::h1cae2e4098fd9c7a
    49fc     49fc      1c0     2         /home/ferrite/rusty1968/initiative/aspeed-rust/target/thumbv7em-none-eabihf/release/deps/libaspeed_ddk-ba190f65fcc992d2.rlib(aspeed_ddk-ba190f65fcc992d2.aspeed_ddk.609ead220c3d04df-cgu.10.rcgu.o):(.text._ZN10aspeed_ddk5tests10functional9hmac_test15print_hex_array17hf4a867fdccaebd70E)
    49fc     49fc        0     1                 $t
    49fd     49fd      1c0     1                 aspeed_ddk::tests::functional::hmac_test::print_hex_array::hf4a867fdccaebd70
    4bbc     4bbc      2a6     2         /home/ferrite/rusty1968/initiative/aspeed-rust/target/thumbv7em-none-eabihf/release/deps/libaspeed_ddk-ba190f65fcc992d2.rlib(aspeed_ddk-ba190f65fcc992d2.aspeed_ddk.609ead220c3d04df-cgu.10.rcgu.o):(.text._ZN10aspeed_ddk5tests10functional9hmac_test11print_input17hc1f4ed60d05568f0E)
    4bbc     4bbc        0     1                 $t
    4bbd     4bbd      2a6     1                 aspeed_ddk::tests::functional::hmac_test::print_input::hc1f4ed60d05568f0
    4e64     4e64      eea     4         /home/ferrite/rusty1968/initiative/aspeed-rust/target/thumbv7em-none-eabihf/release/deps/libaspeed_ddk-ba190f65fcc992d2.rlib(aspeed_ddk-ba190f65fcc992d2.aspeed_ddk.609ead220c3d04df-cgu.10.rcgu.o):(.text._ZN10aspeed_ddk5tests10functional9hmac_test14run_hmac_tests17hb8b2c9c7f08bf956E)
    4e64     4e64        0     1                 $t
    4e65     4e65      eea     1                 aspeed_ddk::tests::functional::hmac_test::run_hmac_tests::hb8b2c9c7f08bf956
    513e     513e        0     1                 $d
    514c     514c        0     1                 $t
    55a8     55a8        0     1                 $d
    55b6     55b6        0     1                 $t
    5a30     5a30        0     1                 $d
    5a38     5a38        0     1                 $t
    5d4e     5d4e       2a     2         /home/ferrite/rusty1968/initiative/aspeed-rust/target/thumbv7em-none-eabihf/release/deps/libaspeed_ddk-ba190f65fcc992d2.rlib(aspeed_ddk-ba190f65fcc992d2.aspeed_ddk.609ead220c3d04df-cgu.10.rcgu.o):(.text._ZN63_$LT$aspeed_ddk..hmac..MacError$u20$as$u20$core..fmt..Debug$GT$3fmt17hbb3274309eb41f5cE)
    5d4e     5d4e        0     1                 $t
    5d4f     5d4f       2a     1                 _$LT$aspeed_ddk..hmac..MacError$u20$as$u20$core..fmt..Debug$GT$::fmt::hbb3274309eb41f5c
    5d78     5d78       24     2         /home/ferrite/rusty1968/initiative/aspeed-rust/target/thumbv7em-none-eabihf/release/deps/libaspeed_ddk-ba190f65fcc992d2.rlib(aspeed_ddk-ba190f65fcc992d2.aspeed_ddk.609ead220c3d04df-cgu.11.rcgu.o):(.text._ZN42_$LT$$RF$T$u20$as$u20$core..fmt..Debug$GT$3fmt17h22e0fd88f8c0a731E)
    5d78     5d78        0     1                 $t
    5d79     5d79       24     1                 _$LT$$RF$T$u20$as$u20$core..fmt..Debug$GT$::fmt::h22e0fd88f8c0a731
    5d9c     5d9c       24     2         /home/ferrite/rusty1968/initiative/aspeed-rust/target/thumbv7em-none-eabihf/release/deps/libaspeed_ddk-ba190f65fcc992d2.rlib(aspeed_ddk-ba190f65fcc992d2.aspeed_ddk.609ead220c3d04df-cgu.12.rcgu.o):(.text._ZN42_$LT$$RF$T$u20$as$u20$core..fmt..Debug$GT$3fmt17h7b7f83ef61c6a257E)
    5d9c     5d9c        0     1                 $t
    5d9d     5d9d       24     1                 _$LT$$RF$T$u20$as$u20$core..fmt..Debug$GT$::fmt::h7b7f83ef61c6a257
    5dc0     5dc0       c0     2         /home/ferrite/rusty1968/initiative/aspeed-rust/target/thumbv7em-none-eabihf/release/deps/libaspeed_ddk-ba190f65fcc992d2.rlib(aspeed_ddk-ba190f65fcc992d2.aspeed_ddk.609ead220c3d04df-cgu.12.rcgu.o):(.text._ZN4core3fmt5Write10write_char17hb34c9766ebc272b4E)
    5dc0     5dc0        0     1                 $t
    5dc1     5dc1       c0     1                 core::fmt::Write::write_char::hb34c9766ebc272b4
    5e80     5e80        e     2         /home/ferrite/rusty1968/initiative/aspeed-rust/target/thumbv7em-none-eabihf/release/deps/libaspeed_ddk-ba190f65fcc992d2.rlib(aspeed_ddk-ba190f65fcc992d2.aspeed_ddk.609ead220c3d04df-cgu.12.rcgu.o):(.text._ZN4core3fmt5Write9write_fmt17h49255eddb3d3d970E)
    5e80     5e80        0     1                 $t
    5e81     5e81        e     1                 core::fmt::Write::write_fmt::h49255eddb3d3d970
    5e8e     5e8e       3c     2         /home/ferrite/rusty1968/initiative/aspeed-rust/target/thumbv7em-none-eabihf/release/deps/libaspeed_ddk-ba190f65fcc992d2.rlib(aspeed_ddk-ba190f65fcc992d2.aspeed_ddk.609ead220c3d04df-cgu.12.rcgu.o):(.text._ZN84_$LT$embedded_io..Write..write_fmt..Adapter$LT$T$GT$$u20$as$u20$core..fmt..Write$GT$9write_str17h0af3aa3ecd60f080E)
    5e8e     5e8e        0     1                 $t
    5e8f     5e8f       3c     1                 _$LT$embedded_io..Write..write_fmt..Adapter$LT$T$GT$$u20$as$u20$core..fmt..Write$GT$::write_str::h0af3aa3ecd60f080
    5eca     5eca      17a     2         /home/ferrite/rusty1968/initiative/aspeed-rust/target/thumbv7em-none-eabihf/release/deps/libaspeed_ddk-ba190f65fcc992d2.rlib(aspeed_ddk-ba190f65fcc992d2.aspeed_ddk.609ead220c3d04df-cgu.12.rcgu.o):(.text._ZN94_$LT$aspeed_ddk..hash..OpContextImpl$LT$A$GT$$u20$as$u20$proposed_traits..digest..DigestOp$GT$6update17h1e973a8dd18b46d8E)
    5eca     5eca        0     1                 $t
    5ecb     5ecb      17a     1                 _$LT$aspeed_ddk..hash..OpContextImpl$LT$A$GT$$u20$as$u20$proposed_traits..digest..DigestOp$GT$::update::h1e973a8dd18b46d8
    5ecb     5ecb      17a     1                 _$LT$aspeed_ddk..hash..OpContextImpl$LT$A$GT$$u20$as$u20$proposed_traits..digest..DigestOp$GT$::update::h56d0bc003ac699e2
    5ecb     5ecb      17a     1                 _$LT$aspeed_ddk..hash..OpContextImpl$LT$A$GT$$u20$as$u20$proposed_traits..digest..DigestOp$GT$::update::ha56c67e953dc6579
    6044     6044       ea     4         /home/ferrite/rusty1968/initiative/aspeed-rust/target/thumbv7em-none-eabihf/release/deps/libaspeed_ddk-ba190f65fcc992d2.rlib(aspeed_ddk-ba190f65fcc992d2.aspeed_ddk.609ead220c3d04df-cgu.12.rcgu.o):(.text._ZN94_$LT$aspeed_ddk..hash..OpContextImpl$LT$A$GT$$u20$as$u20$proposed_traits..digest..DigestOp$GT$8finalize17h09234412d6662549E)
    6044     6044        0     1                 $t
    6045     6045       ea     1                 _$LT$aspeed_ddk..hash..OpContextImpl$LT$A$GT$$u20$as$u20$proposed_traits..digest..DigestOp$GT$::finalize::h09234412d6662549
    6068     6068        0     1                 $d
    6070     6070        0     1                 $t
    6130     6130       f6     4         /home/ferrite/rusty1968/initiative/aspeed-rust/target/thumbv7em-none-eabihf/release/deps/libaspeed_ddk-ba190f65fcc992d2.rlib(aspeed_ddk-ba190f65fcc992d2.aspeed_ddk.609ead220c3d04df-cgu.12.rcgu.o):(.text._ZN94_$LT$aspeed_ddk..hash..OpContextImpl$LT$A$GT$$u20$as$u20$proposed_traits..digest..DigestOp$GT$8finalize17h849276353f9df4c9E)
    6130     6130        0     1                 $t
    6131     6131       f6     1                 _$LT$aspeed_ddk..hash..OpContextImpl$LT$A$GT$$u20$as$u20$proposed_traits..digest..DigestOp$GT$::finalize::h849276353f9df4c9
    6154     6154        0     1                 $d
    615c     615c        0     1                 $t
    6226     6226       24     2         /home/ferrite/rusty1968/initiative/aspeed-rust/target/thumbv7em-none-eabihf/release/deps/libaspeed_ddk-ba190f65fcc992d2.rlib(aspeed_ddk-ba190f65fcc992d2.aspeed_ddk.609ead220c3d04df-cgu.14.rcgu.o):(.text._ZN42_$LT$$RF$T$u20$as$u20$core..fmt..Debug$GT$3fmt17h1c044e7ec9425de6E)
    6226     6226        0     1                 $t
    6227     6227       24     1                 _$LT$$RF$T$u20$as$u20$core..fmt..Debug$GT$::fmt::h1c044e7ec9425de6
    624a     624a       40     2         /home/ferrite/rusty1968/initiative/aspeed-rust/target/thumbv7em-none-eabihf/release/deps/libaspeed_ddk-ba190f65fcc992d2.rlib(aspeed_ddk-ba190f65fcc992d2.aspeed_ddk.609ead220c3d04df-cgu.14.rcgu.o):(.text._ZN72_$LT$embedded_io..WriteFmtError$LT$E$GT$$u20$as$u20$core..fmt..Debug$GT$3fmt17h1cae2e4098fd9c7aE)
    624a     624a        0     1                 $t
    624b     624b       40     1                 _$LT$embedded_io..WriteFmtError$LT$E$GT$$u20$as$u20$core..fmt..Debug$GT$::fmt::h1cae2e4098fd9c7a
    628a     628a      1c0     2         /home/ferrite/rusty1968/initiative/aspeed-rust/target/thumbv7em-none-eabihf/release/deps/libaspeed_ddk-ba190f65fcc992d2.rlib(aspeed_ddk-ba190f65fcc992d2.aspeed_ddk.609ead220c3d04df-cgu.14.rcgu.o):(.text._ZN10aspeed_ddk5tests10functional9hash_test15print_hex_array17h37db67cdda84a55dE)
    628a     628a        0     1                 $t
    628b     628b      1c0     1                 aspeed_ddk::tests::functional::hash_test::print_hex_array::h37db67cdda84a55d
    644a     644a      2a6     2         /home/ferrite/rusty1968/initiative/aspeed-rust/target/thumbv7em-none-eabihf/release/deps/libaspeed_ddk-ba190f65fcc992d2.rlib(aspeed_ddk-ba190f65fcc992d2.aspeed_ddk.609ead220c3d04df-cgu.14.rcgu.o):(.text._ZN10aspeed_ddk5tests10functional9hash_test11print_input17h31a5d0cd6523915bE)
    644a     644a        0     1                 $t
    644b     644b      2a6     1                 aspeed_ddk::tests::functional::hash_test::print_input::h31a5d0cd6523915b
    66f0     66f0      7d6     4         /home/ferrite/rusty1968/initiative/aspeed-rust/target/thumbv7em-none-eabihf/release/deps/libaspeed_ddk-ba190f65fcc992d2.rlib(aspeed_ddk-ba190f65fcc992d2.aspeed_ddk.609ead220c3d04df-cgu.14.rcgu.o):(.text._ZN10aspeed_ddk5tests10functional9hash_test14run_hash_tests17h46e4d575cd6a7ba8E)
    66f0     66f0        0     1                 $t
    66f1     66f1      7d6     1                 aspeed_ddk::tests::functional::hash_test::run_hash_tests::h46e4d575cd6a7ba8
    6baa     6baa        0     1                 $d
    6bb2     6bb2        0     1                 $t
    6ec6     6ec6       2a     2         /home/ferrite/rusty1968/initiative/aspeed-rust/target/thumbv7em-none-eabihf/release/deps/libaspeed_ddk-ba190f65fcc992d2.rlib(aspeed_ddk-ba190f65fcc992d2.aspeed_ddk.609ead220c3d04df-cgu.14.rcgu.o):(.text._ZN64_$LT$aspeed_ddk..hash..HashError$u20$as$u20$core..fmt..Debug$GT$3fmt17h01263013f0de31a4E)
    6ec6     6ec6        0     1                 $t
    6ec7     6ec7       2a     1                 _$LT$aspeed_ddk..hash..HashError$u20$as$u20$core..fmt..Debug$GT$::fmt::h01263013f0de31a4
    6ef0     6ef0       42     2         /home/ferrite/rusty1968/initiative/aspeed-rust/target/thumbv7em-none-eabihf/release/deps/libaspeed_ddk-ba190f65fcc992d2.rlib(aspeed_ddk-ba190f65fcc992d2.aspeed_ddk.609ead220c3d04df-cgu.15.rcgu.o):(.text._ZN12embedded_hal5delay7DelayNs8delay_ms17ha5730bcdd7d18659E)
    6ef0     6ef0        0     1                 $t
    6ef1     6ef1       42     1                 embedded_hal::delay::DelayNs::delay_ms::ha5730bcdd7d18659
    6f32     6f32       46     2         /home/ferrite/rusty1968/initiative/aspeed-rust/target/thumbv7em-none-eabihf/release/deps/libaspeed_ddk-ba190f65fcc992d2.rlib(aspeed_ddk-ba190f65fcc992d2.aspeed_ddk.609ead220c3d04df-cgu.15.rcgu.o):(.text._ZN42_$LT$$RF$T$u20$as$u20$core..fmt..Debug$GT$3fmt17h4832b3bfdf43c677E)
    6f32     6f32        0     1                 $t
    6f33     6f33       46     1                 _$LT$$RF$T$u20$as$u20$core..fmt..Debug$GT$::fmt::h4832b3bfdf43c677
    6f33     6f33       46     1                 _$LT$$RF$mut$u20$T$u20$as$u20$core..fmt..Debug$GT$::fmt::h360952f5cbacd127
    6f78     6f78       18     2         /home/ferrite/rusty1968/initiative/aspeed-rust/target/thumbv7em-none-eabihf/release/deps/libaspeed_ddk-ba190f65fcc992d2.rlib(aspeed_ddk-ba190f65fcc992d2.aspeed_ddk.609ead220c3d04df-cgu.15.rcgu.o):(.text._ZN42_$LT$$RF$T$u20$as$u20$core..fmt..Debug$GT$3fmt17h6846afb986bc836cE)
    6f78     6f78        0     1                 $t
    6f79     6f79       18     1                 _$LT$$RF$T$u20$as$u20$core..fmt..Debug$GT$::fmt::h6846afb986bc836c
    6f90     6f90       10     2         /home/ferrite/rusty1968/initiative/aspeed-rust/target/thumbv7em-none-eabihf/release/deps/libaspeed_ddk-ba190f65fcc992d2.rlib(aspeed_ddk-ba190f65fcc992d2.aspeed_ddk.609ead220c3d04df-cgu.15.rcgu.o):(.text._ZN42_$LT$$RF$T$u20$as$u20$core..fmt..Debug$GT$3fmt17h887fa37cd21c2c9aE)
    6f90     6f90        0     1                 $t
    6f91     6f91       10     1                 _$LT$$RF$T$u20$as$u20$core..fmt..Debug$GT$::fmt::h887fa37cd21c2c9a
    6fa0     6fa0        a     2         /home/ferrite/rusty1968/initiative/aspeed-rust/target/thumbv7em-none-eabihf/release/deps/libaspeed_ddk-ba190f65fcc992d2.rlib(aspeed_ddk-ba190f65fcc992d2.aspeed_ddk.609ead220c3d04df-cgu.15.rcgu.o):(.text._ZN44_$LT$$RF$T$u20$as$u20$core..fmt..Display$GT$3fmt17hf46f6344943bddacE)
    6fa0     6fa0        0     1                 $t
    6fa1     6fa1        a     1                 _$LT$$RF$T$u20$as$u20$core..fmt..Display$GT$::fmt::hf46f6344943bddac
    6faa     6faa       10     2         /home/ferrite/rusty1968/initiative/aspeed-rust/target/thumbv7em-none-eabihf/release/deps/libaspeed_ddk-ba190f65fcc992d2.rlib(aspeed_ddk-ba190f65fcc992d2.aspeed_ddk.609ead220c3d04df-cgu.15.rcgu.o):(.text._ZN45_$LT$$LP$$RP$$u20$as$u20$core..fmt..Debug$GT$3fmt17ha7d03d34adaf1d5eE)
    6faa     6faa        0     1                 $t
    6fab     6fab       10     1                 _$LT$$LP$$RP$$u20$as$u20$core..fmt..Debug$GT$::fmt::ha7d03d34adaf1d5e
    6fba     6fba        6     2         /home/ferrite/rusty1968/initiative/aspeed-rust/target/thumbv7em-none-eabihf/release/deps/libaspeed_ddk-ba190f65fcc992d2.rlib(aspeed_ddk-ba190f65fcc992d2.aspeed_ddk.609ead220c3d04df-cgu.15.rcgu.o):(.text._ZN45_$LT$$RF$T$u20$as$u20$core..fmt..LowerHex$GT$3fmt17h334872d693fd6f9eE)
    6fba     6fba        0     1                 $t
    6fbb     6fbb        6     1                 _$LT$$RF$T$u20$as$u20$core..fmt..LowerHex$GT$::fmt::h334872d693fd6f9e
    6fc0     6fc0        6     2         /home/ferrite/rusty1968/initiative/aspeed-rust/target/thumbv7em-none-eabihf/release/deps/libaspeed_ddk-ba190f65fcc992d2.rlib(aspeed_ddk-ba190f65fcc992d2.aspeed_ddk.609ead220c3d04df-cgu.15.rcgu.o):(.text._ZN52_$LT$$BP$mut$u20$T$u20$as$u20$core..fmt..Pointer$GT$3fmt17h19976e72a8ec9977E)
    6fc0     6fc0        0     1                 $t
    6fc1     6fc1        6     1                 _$LT$$BP$mut$u20$T$u20$as$u20$core..fmt..Pointer$GT$::fmt::h19976e72a8ec9977
    6fc1     6fc1        6     1                 _$LT$$BP$const$u20$T$u20$as$u20$core..fmt..Pointer$GT$::fmt::h76603ccff1d21f10
    6fc6     6fc6       40     2         /home/ferrite/rusty1968/initiative/aspeed-rust/target/thumbv7em-none-eabihf/release/deps/libaspeed_ddk-ba190f65fcc992d2.rlib(aspeed_ddk-ba190f65fcc992d2.aspeed_ddk.609ead220c3d04df-cgu.15.rcgu.o):(.text._ZN72_$LT$embedded_io..WriteFmtError$LT$E$GT$$u20$as$u20$core..fmt..Debug$GT$3fmt17h1cae2e4098fd9c7aE)
    6fc6     6fc6        0     1                 $t
    6fc7     6fc7       40     1                 _$LT$embedded_io..WriteFmtError$LT$E$GT$$u20$as$u20$core..fmt..Debug$GT$::fmt::h1cae2e4098fd9c7a
    7008     7008      20a     4         /home/ferrite/rusty1968/initiative/aspeed-rust/target/thumbv7em-none-eabihf/release/deps/libaspeed_ddk-ba190f65fcc992d2.rlib(aspeed_ddk-ba190f65fcc992d2.aspeed_ddk.609ead220c3d04df-cgu.15.rcgu.o):(.text._ZN88_$LT$aspeed_ddk..hmac..OpContextImpl$LT$A$GT$$u20$as$u20$proposed_traits..mac..MacOp$GT$6update17h73f3bf7feb1cfcf6E)
    7008     7008        0     1                 $t
    7009     7009      20a     1                 _$LT$aspeed_ddk..hmac..OpContextImpl$LT$A$GT$$u20$as$u20$proposed_traits..mac..MacOp$GT$::update::h73f3bf7feb1cfcf6
    7009     7009      20a     1                 _$LT$aspeed_ddk..hmac..OpContextImpl$LT$A$GT$$u20$as$u20$proposed_traits..mac..MacOp$GT$::update::hc6e91762eaa6b872
    7009     7009      20a     1                 _$LT$aspeed_ddk..hmac..OpContextImpl$LT$A$GT$$u20$as$u20$proposed_traits..mac..MacOp$GT$::update::he508ef4a1a1acfaa
    7036     7036        0     1                 $d
    703e     703e        0     1                 $t
    7212     7212      3c4     2         /home/ferrite/rusty1968/initiative/aspeed-rust/target/thumbv7em-none-eabihf/release/deps/libaspeed_ddk-ba190f65fcc992d2.rlib(aspeed_ddk-ba190f65fcc992d2.aspeed_ddk.609ead220c3d04df-cgu.15.rcgu.o):(.text._ZN10aspeed_ddk5tests10functional8i2c_test15test_i2c_master17h498ff27df0d1bf98E)
    7212     7212        0     1                 $t
    7213     7213      3c4     1                 aspeed_ddk::tests::functional::i2c_test::test_i2c_master::h498ff27df0d1bf98
    75d6     75d6      1d8     2         /home/ferrite/rusty1968/initiative/aspeed-rust/target/thumbv7em-none-eabihf/release/deps/libaspeed_ddk-ba190f65fcc992d2.rlib(aspeed_ddk-ba190f65fcc992d2.aspeed_ddk.609ead220c3d04df-cgu.15.rcgu.o):(.text.timer)
    75d6     75d6        0     1                 $t
    75d7     75d7      1d8     1                 timer
    77ae     77ae      23a     2         /home/ferrite/rusty1968/initiative/aspeed-rust/target/thumbv7em-none-eabihf/release/deps/libaspeed_ddk-ba190f65fcc992d2.rlib(aspeed_ddk-ba190f65fcc992d2.aspeed_ddk.609ead220c3d04df-cgu.15.rcgu.o):(.text._ZN10aspeed_ddk5tests10functional10timer_test14timer_callback17hdf4109b093262192E)
    77ae     77ae        0     1                 $t
    77af     77af      23a     1                 aspeed_ddk::tests::functional::timer_test::timer_callback::hdf4109b093262192
    79e8     79e8       be     2         /home/ferrite/rusty1968/initiative/aspeed-rust/target/thumbv7em-none-eabihf/release/deps/libaspeed_ddk-ba190f65fcc992d2.rlib(aspeed_ddk-ba190f65fcc992d2.aspeed_ddk.609ead220c3d04df-cgu.15.rcgu.o):(.text._ZN10aspeed_ddk5tests10functional10timer_test15run_timer_tests17h7580a982ca7bf770E)
    79e8     79e8        0     1                 $t
    79e9     79e9       be     1                 aspeed_ddk::tests::functional::timer_test::run_timer_tests::h7580a982ca7bf770
    7aa8     7aa8       d6     4         /home/ferrite/rusty1968/initiative/aspeed-rust/target/thumbv7em-none-eabihf/release/deps/libaspeed_ddk-ba190f65fcc992d2.rlib(aspeed_ddk-ba190f65fcc992d2.aspeed_ddk.609ead220c3d04df-cgu.15.rcgu.o):(.text._ZN72_$LT$aspeed_ddk..i2c..ast1060_i2c..Error$u20$as$u20$core..fmt..Debug$GT$3fmt17hb75062534e64bc71E)
    7aa8     7aa8        0     1                 $t
    7aa9     7aa9       d6     1                 _$LT$aspeed_ddk..i2c..ast1060_i2c..Error$u20$as$u20$core..fmt..Debug$GT$::fmt::hb75062534e64bc71
    7abc     7abc        0     1                 $d
    7ac6     7ac6        0     1                 $t
    7b7e     7b7e        2     2         /home/ferrite/rusty1968/initiative/aspeed-rust/target/thumbv7em-none-eabihf/release/deps/libaspeed_ddk-ba190f65fcc992d2.rlib(aspeed_ddk-ba190f65fcc992d2.aspeed_ddk.609ead220c3d04df-cgu.02.rcgu.o):(.text._ZN4core3ptr61drop_in_place$LT$heapless..string..String$LT$64_usize$GT$$GT$17h6baa6e2764467e0eE)
    7b7e     7b7e        0     1                 $t
    7b7f     7b7f        2     1                 core::ptr::drop_in_place$LT$heapless..string..String$LT$64_usize$GT$$GT$::h6baa6e2764467e0e
    7b80     7b80       10     2         /home/ferrite/rusty1968/initiative/aspeed-rust/target/thumbv7em-none-eabihf/release/deps/libaspeed_ddk-ba190f65fcc992d2.rlib(aspeed_ddk-ba190f65fcc992d2.aspeed_ddk.609ead220c3d04df-cgu.02.rcgu.o):(.text._ZN53_$LT$core..fmt..Error$u20$as$u20$core..fmt..Debug$GT$3fmt17h81452d555e445323E)
    7b80     7b80        0     1                 $t
    7b81     7b81       10     1                 _$LT$core..fmt..Error$u20$as$u20$core..fmt..Debug$GT$::fmt::h81452d555e445323
    7b90     7b90       2a     2         /home/ferrite/rusty1968/initiative/aspeed-rust/target/thumbv7em-none-eabihf/release/deps/libaspeed_ddk-ba190f65fcc992d2.rlib(aspeed_ddk-ba190f65fcc992d2.aspeed_ddk.609ead220c3d04df-cgu.02.rcgu.o):(.text._ZN70_$LT$core..num..error..TryFromIntError$u20$as$u20$core..fmt..Debug$GT$3fmt17h8c7e68eb481133a5E)
    7b90     7b90        0     1                 $t
    7b91     7b91       2a     1                 _$LT$core..num..error..TryFromIntError$u20$as$u20$core..fmt..Debug$GT$::fmt::h8c7e68eb481133a5
    7bba     7bba      63c     2         /home/ferrite/rusty1968/initiative/aspeed-rust/target/thumbv7em-none-eabihf/release/deps/libaspeed_ddk-ba190f65fcc992d2.rlib(aspeed_ddk-ba190f65fcc992d2.aspeed_ddk.609ead220c3d04df-cgu.02.rcgu.o):(.text._ZN133_$LT$aspeed_ddk..i2c..ast1060_i2c..Ast1060I2c$LT$I2C$C$I2CT$C$L$GT$$u20$as$u20$aspeed_ddk..i2c..i2c_controller..HardwareInterface$GT$4init17h8dbb313f5feba283E)
    7bba     7bba        0     1                 $t
    7bbb     7bbb      63c     1                 _$LT$aspeed_ddk..i2c..ast1060_i2c..Ast1060I2c$LT$I2C$C$I2CT$C$L$GT$$u20$as$u20$aspeed_ddk..i2c..i2c_controller..HardwareInterface$GT$::init::h8dbb313f5feba283
    81f6     81f6      302     2         /home/ferrite/rusty1968/initiative/aspeed-rust/target/thumbv7em-none-eabihf/release/deps/libaspeed_ddk-ba190f65fcc992d2.rlib(aspeed_ddk-ba190f65fcc992d2.aspeed_ddk.609ead220c3d04df-cgu.02.rcgu.o):(.text._ZN133_$LT$aspeed_ddk..i2c..ast1060_i2c..Ast1060I2c$LT$I2C$C$I2CT$C$L$GT$$u20$as$u20$aspeed_ddk..i2c..i2c_controller..HardwareInterface$GT$4read17h04090a5bed9d2a8fE)
    81f6     81f6        0     1                 $t
    81f7     81f7      302     1                 _$LT$aspeed_ddk..i2c..ast1060_i2c..Ast1060I2c$LT$I2C$C$I2CT$C$L$GT$$u20$as$u20$aspeed_ddk..i2c..i2c_controller..HardwareInterface$GT$::read::h04090a5bed9d2a8f
    84f8     84f8      cf4     2         /home/ferrite/rusty1968/initiative/aspeed-rust/target/thumbv7em-none-eabihf/release/deps/libaspeed_ddk-ba190f65fcc992d2.rlib(aspeed_ddk-ba190f65fcc992d2.aspeed_ddk.609ead220c3d04df-cgu.02.rcgu.o):(.text._ZN10aspeed_ddk3i2c11ast1060_i2c32Ast1060I2c$LT$I2C$C$I2CT$C$L$GT$19i2c_wait_completion17h3e502b7f4c648ffcE.llvm.6178568609491323605)
    84f8     84f8        0     1                 $t
    84f9     84f9      cf4     1                 aspeed_ddk::i2c::ast1060_i2c::Ast1060I2c$LT$I2C$C$I2CT$C$L$GT$::i2c_wait_completion::h3e502b7f4c648ffc (.llvm.6178568609491323605)
    91ec     91ec      47e     2         /home/ferrite/rusty1968/initiative/aspeed-rust/target/thumbv7em-none-eabihf/release/deps/libaspeed_ddk-ba190f65fcc992d2.rlib(aspeed_ddk-ba190f65fcc992d2.aspeed_ddk.609ead220c3d04df-cgu.02.rcgu.o):(.text._ZN10aspeed_ddk3i2c11ast1060_i2c32Ast1060I2c$LT$I2C$C$I2CT$C$L$GT$15aspeed_i2c_read17h15c06a7fd7810c18E.llvm.6178568609491323605)
    91ec     91ec        0     1                 $t
    91ed     91ed      47e     1                 aspeed_ddk::i2c::ast1060_i2c::Ast1060I2c$LT$I2C$C$I2CT$C$L$GT$::aspeed_i2c_read::h15c06a7fd7810c18 (.llvm.6178568609491323605)
    966a     966a      6b4     2         /home/ferrite/rusty1968/initiative/aspeed-rust/target/thumbv7em-none-eabihf/release/deps/libaspeed_ddk-ba190f65fcc992d2.rlib(aspeed_ddk-ba190f65fcc992d2.aspeed_ddk.609ead220c3d04df-cgu.02.rcgu.o):(.text._ZN10aspeed_ddk3i2c11ast1060_i2c32Ast1060I2c$LT$I2C$C$I2CT$C$L$GT$16aspeed_i2c_write17h171b58b891322c6fE.llvm.6178568609491323605)
    966a     966a        0     1                 $t
    966b     966b      6b4     1                 aspeed_ddk::i2c::ast1060_i2c::Ast1060I2c$LT$I2C$C$I2CT$C$L$GT$::aspeed_i2c_write::h171b58b891322c6f (.llvm.6178568609491323605)
    9d1e     9d1e       a0     2         /home/ferrite/rusty1968/initiative/aspeed-rust/target/thumbv7em-none-eabihf/release/deps/libaspeed_ddk-ba190f65fcc992d2.rlib(aspeed_ddk-ba190f65fcc992d2.aspeed_ddk.609ead220c3d04df-cgu.02.rcgu.o):(.text._ZN10aspeed_ddk3i2c11ast1060_i2c32Ast1060I2c$LT$I2C$C$I2CT$C$L$GT$19i2c_aspeed_transfer17hc2f8582452415c5bE)
    9d1e     9d1e        0     1                 $t
    9d1f     9d1f       a0     1                 aspeed_ddk::i2c::ast1060_i2c::Ast1060I2c$LT$I2C$C$I2CT$C$L$GT$::i2c_aspeed_transfer::hc2f8582452415c5b
    9dbe     9dbe        4     2         /home/ferrite/rusty1968/initiative/aspeed-rust/target/thumbv7em-none-eabihf/release/deps/libcortex_m-a377b1891f2e56a3.rlib(bin/thumbv7em-none-eabihf.o):(.text.__nop)
    9dbe     9dbe        0     1                 $t.11
    9dbf     9dbf        4     1                 __nop
    9dc2     9dc2        4     2         /home/ferrite/rusty1968/initiative/aspeed-rust/target/thumbv7em-none-eabihf/release/deps/libcortex_m-a377b1891f2e56a3.rlib(bin/thumbv7em-none-eabihf.o):(.text.__wfi)
    9dc2     9dc2        0     1                 $t.18
    9dc3     9dc3        4     1                 __wfi
    9dc6     9dc6       20     2         /home/ferrite/.rustup/toolchains/nightly-2024-09-17-x86_64-unknown-linux-gnu/lib/rustlib/thumbv7em-none-eabihf/lib/libcore-6c7f6233b52d4c10.rlib(core-6c7f6233b52d4c10.core.852c90009024f853-cgu.0.rcgu.o):(.text.unlikely._ZN4core9panicking9panic_fmt17he980eb901d67cc23E)
    9dc6     9dc6        0     1                 $t
    9dc7     9dc7       20     1                 core::panicking::panic_fmt::he980eb901d67cc23
    9de8     9de8       3c     4         /home/ferrite/.rustup/toolchains/nightly-2024-09-17-x86_64-unknown-linux-gnu/lib/rustlib/thumbv7em-none-eabihf/lib/libcore-6c7f6233b52d4c10.rlib(core-6c7f6233b52d4c10.core.852c90009024f853-cgu.0.rcgu.o):(.text.unlikely._ZN4core9panicking18panic_bounds_check17he9ce46ad88fbfd18E)
    9de8     9de8        0     1                 $t
    9de9     9de9       3c     1                 core::panicking::panic_bounds_check::he9ce46ad88fbfd18
    9e1c     9e1c        0     1                 $d
    9e24     9e24       4a     2         /home/ferrite/.rustup/toolchains/nightly-2024-09-17-x86_64-unknown-linux-gnu/lib/rustlib/thumbv7em-none-eabihf/lib/libcore-6c7f6233b52d4c10.rlib(core-6c7f6233b52d4c10.core.852c90009024f853-cgu.0.rcgu.o):(.text.unlikely._ZN4core6result13unwrap_failed17hd1ed81e200bd9397E)
    9e24     9e24        0     1                 $t
    9e25     9e25       4a     1                 core::result::unwrap_failed::hd1ed81e200bd9397
    9e6e     9e6e      296     2         /home/ferrite/.rustup/toolchains/nightly-2024-09-17-x86_64-unknown-linux-gnu/lib/rustlib/thumbv7em-none-eabihf/lib/libcore-6c7f6233b52d4c10.rlib(core-6c7f6233b52d4c10.core.852c90009024f853-cgu.0.rcgu.o):(.text._ZN68_$LT$core..fmt..builders..PadAdapter$u20$as$u20$core..fmt..Write$GT$9write_str17h5cc1bdc1a923f40fE)
    9e6e     9e6e        0     1                 $t
    9e6f     9e6f      296     1                 _$LT$core..fmt..builders..PadAdapter$u20$as$u20$core..fmt..Write$GT$::write_str::h5cc1bdc1a923f40f
    a104     a104       4c     2         /home/ferrite/.rustup/toolchains/nightly-2024-09-17-x86_64-unknown-linux-gnu/lib/rustlib/thumbv7em-none-eabihf/lib/libcore-6c7f6233b52d4c10.rlib(core-6c7f6233b52d4c10.core.852c90009024f853-cgu.0.rcgu.o):(.text._ZN68_$LT$core..fmt..builders..PadAdapter$u20$as$u20$core..fmt..Write$GT$10write_char17h2029e98034a295b1E)
    a104     a104        0     1                 $t
    a105     a105       4c     1                 _$LT$core..fmt..builders..PadAdapter$u20$as$u20$core..fmt..Write$GT$::write_char::h2029e98034a295b1
    a150     a150       ee     2         /home/ferrite/.rustup/toolchains/nightly-2024-09-17-x86_64-unknown-linux-gnu/lib/rustlib/thumbv7em-none-eabihf/lib/libcore-6c7f6233b52d4c10.rlib(core-6c7f6233b52d4c10.core.852c90009024f853-cgu.0.rcgu.o):(.text._ZN4core3fmt8builders10DebugTuple5field17h94c8aa829c818a6bE)
    a150     a150        0     1                 $t
    a151     a151       ee     1                 core::fmt::builders::DebugTuple::field::h94c8aa829c818a6b
    a23e     a23e       ee     2         /home/ferrite/.rustup/toolchains/nightly-2024-09-17-x86_64-unknown-linux-gnu/lib/rustlib/thumbv7em-none-eabihf/lib/libcore-6c7f6233b52d4c10.rlib(core-6c7f6233b52d4c10.core.852c90009024f853-cgu.0.rcgu.o):(.text._ZN4core3fmt8builders8DebugSet5entry17h4996265deb85ab67E)
    a23e     a23e        0     1                 $t
    a23f     a23f       ee     1                 core::fmt::builders::DebugSet::entry::h4996265deb85ab67
    a23f     a23f       ee     1                 core::fmt::builders::DebugList::entry::h09a1107d44273f89
    a32c     a32c       28     2         /home/ferrite/.rustup/toolchains/nightly-2024-09-17-x86_64-unknown-linux-gnu/lib/rustlib/thumbv7em-none-eabihf/lib/libcore-6c7f6233b52d4c10.rlib(core-6c7f6233b52d4c10.core.852c90009024f853-cgu.0.rcgu.o):(.text._ZN4core3fmt8builders9DebugList6finish17h51d68804ab23fd7dE)
    a32c     a32c        0     1                 $t
    a32d     a32d       28     1                 core::fmt::builders::DebugList::finish::h51d68804ab23fd7d
    a354     a354        e     2         /home/ferrite/.rustup/toolchains/nightly-2024-09-17-x86_64-unknown-linux-gnu/lib/rustlib/thumbv7em-none-eabihf/lib/libcore-6c7f6233b52d4c10.rlib(core-6c7f6233b52d4c10.core.852c90009024f853-cgu.0.rcgu.o):(.text._ZN4core3fmt5Write9write_fmt17hf717b859062ff287E)
    a354     a354        0     1                 $t
    a355     a355        e     1                 core::fmt::Write::write_fmt::hf717b859062ff287
    a362     a362      17c     2         /home/ferrite/.rustup/toolchains/nightly-2024-09-17-x86_64-unknown-linux-gnu/lib/rustlib/thumbv7em-none-eabihf/lib/libcore-6c7f6233b52d4c10.rlib(core-6c7f6233b52d4c10.core.852c90009024f853-cgu.0.rcgu.o):(.text._ZN4core3fmt5write17hbd1e6d9855b9a25fE)
    a362     a362        0     1                 $t
    a363     a363      17c     1                 core::fmt::write::hbd1e6d9855b9a25f
    a4e0     a4e0      2c2     4         /home/ferrite/.rustup/toolchains/nightly-2024-09-17-x86_64-unknown-linux-gnu/lib/rustlib/thumbv7em-none-eabihf/lib/libcore-6c7f6233b52d4c10.rlib(core-6c7f6233b52d4c10.core.852c90009024f853-cgu.0.rcgu.o):(.text._ZN4core3fmt9Formatter12pad_integral17h913c2d29eba25e83E)
    a4e0     a4e0        0     1                 $t
    a4e1     a4e1      2c2     1                 core::fmt::Formatter::pad_integral::h913c2d29eba25e83
    a650     a650        0     1                 $d
    a654     a654        0     1                 $t
    a7a2     a7a2       46     2         /home/ferrite/.rustup/toolchains/nightly-2024-09-17-x86_64-unknown-linux-gnu/lib/rustlib/thumbv7em-none-eabihf/lib/libcore-6c7f6233b52d4c10.rlib(core-6c7f6233b52d4c10.core.852c90009024f853-cgu.0.rcgu.o):(.text._ZN4core3fmt9Formatter12pad_integral12write_prefix17h4d459fe02e6f01d4E)
    a7a2     a7a2        0     1                 $t
    a7a3     a7a3       46     1                 core::fmt::Formatter::pad_integral::write_prefix::h4d459fe02e6f01d4
    a7e8     a7e8      206     4         /home/ferrite/.rustup/toolchains/nightly-2024-09-17-x86_64-unknown-linux-gnu/lib/rustlib/thumbv7em-none-eabihf/lib/libcore-6c7f6233b52d4c10.rlib(core-6c7f6233b52d4c10.core.852c90009024f853-cgu.0.rcgu.o):(.text._ZN4core3fmt9Formatter3pad17hd83da8f793793528E)
    a7e8     a7e8        0     1                 $t
    a7e9     a7e9      206     1                 core::fmt::Formatter::pad::hd83da8f793793528
    a966     a966        0     1                 $d
    a96a     a96a        0     1                 $t
    a9ee     a9ee        8     2         /home/ferrite/.rustup/toolchains/nightly-2024-09-17-x86_64-unknown-linux-gnu/lib/rustlib/thumbv7em-none-eabihf/lib/libcore-6c7f6233b52d4c10.rlib(core-6c7f6233b52d4c10.core.852c90009024f853-cgu.0.rcgu.o):(.text._ZN4core3fmt9Formatter9write_str17hd08576c9db5cad24E)
    a9ee     a9ee        0     1                 $t
    a9ef     a9ef        8     1                 core::fmt::Formatter::write_str::hd08576c9db5cad24
    a9ef     a9ef        8     1                 _$LT$core..fmt..Formatter$u20$as$u20$core..fmt..Write$GT$::write_str::he489898ac507486e
    a9f6     a9f6       a8     2         /home/ferrite/.rustup/toolchains/nightly-2024-09-17-x86_64-unknown-linux-gnu/lib/rustlib/thumbv7em-none-eabihf/lib/libcore-6c7f6233b52d4c10.rlib(core-6c7f6233b52d4c10.core.852c90009024f853-cgu.0.rcgu.o):(.text._ZN4core3fmt9Formatter25debug_tuple_field1_finish17hc44294b41c641edaE)
    a9f6     a9f6        0     1                 $t
    a9f7     a9f7       a8     1                 core::fmt::Formatter::debug_tuple_field1_finish::hc44294b41c641eda
    aa9e     aa9e       24     2         /home/ferrite/.rustup/toolchains/nightly-2024-09-17-x86_64-unknown-linux-gnu/lib/rustlib/thumbv7em-none-eabihf/lib/libcore-6c7f6233b52d4c10.rlib(core-6c7f6233b52d4c10.core.852c90009024f853-cgu.0.rcgu.o):(.text._ZN4core3fmt9Formatter10debug_list17hc46994b393ecf545E)
    aa9e     aa9e        0     1                 $t
    aa9f     aa9f       24     1                 core::fmt::Formatter::debug_list::hc46994b393ecf545
    aac2     aac2        c     2         /home/ferrite/.rustup/toolchains/nightly-2024-09-17-x86_64-unknown-linux-gnu/lib/rustlib/thumbv7em-none-eabihf/lib/libcore-6c7f6233b52d4c10.rlib(core-6c7f6233b52d4c10.core.852c90009024f853-cgu.0.rcgu.o):(.text._ZN42_$LT$str$u20$as$u20$core..fmt..Display$GT$3fmt17h49d8a6dc14ac8bf3E)
    aac2     aac2        0     1                 $t
    aac3     aac3        c     1                 _$LT$str$u20$as$u20$core..fmt..Display$GT$::fmt::h49d8a6dc14ac8bf3
    aace     aace       f2     2         /home/ferrite/.rustup/toolchains/nightly-2024-09-17-x86_64-unknown-linux-gnu/lib/rustlib/thumbv7em-none-eabihf/lib/libcore-6c7f6233b52d4c10.rlib(core-6c7f6233b52d4c10.core.852c90009024f853-cgu.0.rcgu.o):(.text._ZN4core3fmt17pointer_fmt_inner17h6f7fdfd3bed04ce7E)
    aace     aace        0     1                 $t
    aacf     aacf       f2     1                 core::fmt::pointer_fmt_inner::h6f7fdfd3bed04ce7
    abc0     abc0       3e     2         /home/ferrite/.rustup/toolchains/nightly-2024-09-17-x86_64-unknown-linux-gnu/lib/rustlib/thumbv7em-none-eabihf/lib/libcore-6c7f6233b52d4c10.rlib(core-6c7f6233b52d4c10.core.852c90009024f853-cgu.0.rcgu.o):(.text.unlikely._ZN4core5slice5index26slice_start_index_len_fail17h92ab6547c545b41eE)
    abc0     abc0        0     1                 $t
    abc1     abc1       3e     1                 core::slice::index::slice_start_index_len_fail::h92ab6547c545b41e
    abfe     abfe       3e     2         /home/ferrite/.rustup/toolchains/nightly-2024-09-17-x86_64-unknown-linux-gnu/lib/rustlib/thumbv7em-none-eabihf/lib/libcore-6c7f6233b52d4c10.rlib(core-6c7f6233b52d4c10.core.852c90009024f853-cgu.0.rcgu.o):(.text.unlikely._ZN4core5slice5index24slice_end_index_len_fail17h743a3b466c598d3eE)
    abfe     abfe        0     1                 $t
    abff     abff       3e     1                 core::slice::index::slice_end_index_len_fail::h743a3b466c598d3e
    ac3c     ac3c       3e     2         /home/ferrite/.rustup/toolchains/nightly-2024-09-17-x86_64-unknown-linux-gnu/lib/rustlib/thumbv7em-none-eabihf/lib/libcore-6c7f6233b52d4c10.rlib(core-6c7f6233b52d4c10.core.852c90009024f853-cgu.0.rcgu.o):(.text.unlikely._ZN4core5slice5index22slice_index_order_fail17h0f1a6a415a755d54E)
    ac3c     ac3c        0     1                 $t
    ac3d     ac3d       3e     1                 core::slice::index::slice_index_order_fail::h0f1a6a415a755d54
    ac7a     ac7a       40     2         /home/ferrite/.rustup/toolchains/nightly-2024-09-17-x86_64-unknown-linux-gnu/lib/rustlib/thumbv7em-none-eabihf/lib/libcore-6c7f6233b52d4c10.rlib(core-6c7f6233b52d4c10.core.852c90009024f853-cgu.0.rcgu.o):(.text.unlikely._ZN4core5slice29_$LT$impl$u20$$u5b$T$u5d$$GT$15copy_from_slice17len_mismatch_fail17hff7a7913aa3a3e00E)
    ac7a     ac7a        0     1                 $t
    ac7b     ac7b       40     1                 core::slice::_$LT$impl$u20$$u5b$T$u5d$$GT$::copy_from_slice::len_mismatch_fail::hff7a7913aa3a3e00
    acba     acba      22c     2         /home/ferrite/.rustup/toolchains/nightly-2024-09-17-x86_64-unknown-linux-gnu/lib/rustlib/thumbv7em-none-eabihf/lib/libcore-6c7f6233b52d4c10.rlib(core-6c7f6233b52d4c10.core.852c90009024f853-cgu.0.rcgu.o):(.text._ZN4core3str8converts9from_utf817he9248c2a4e4c022cE)
    acba     acba        0     1                 $t
    acbb     acbb      22c     1                 core::str::converts::from_utf8::he9248c2a4e4c022c
    aee6     aee6      4ca     2         /home/ferrite/.rustup/toolchains/nightly-2024-09-17-x86_64-unknown-linux-gnu/lib/rustlib/thumbv7em-none-eabihf/lib/libcore-6c7f6233b52d4c10.rlib(core-6c7f6233b52d4c10.core.852c90009024f853-cgu.0.rcgu.o):(.text._ZN4core3str5count14do_count_chars17hbe7d14a98b129594E)
    aee6     aee6        0     1                 $t
    aee7     aee7      4ca     1                 core::str::count::do_count_chars::hbe7d14a98b129594
    b3b0     b3b0       26     2         /home/ferrite/.rustup/toolchains/nightly-2024-09-17-x86_64-unknown-linux-gnu/lib/rustlib/thumbv7em-none-eabihf/lib/libcore-6c7f6233b52d4c10.rlib(core-6c7f6233b52d4c10.core.852c90009024f853-cgu.0.rcgu.o):(.text.unlikely._ZN4core9panicking11panic_const23panic_const_div_by_zero17h66e27c84bfaec210E)
    b3b0     b3b0        0     1                 $t
    b3b1     b3b1       26     1                 core::panicking::panic_const::panic_const_div_by_zero::h66e27c84bfaec210
    b3d6     b3d6       26     2         /home/ferrite/.rustup/toolchains/nightly-2024-09-17-x86_64-unknown-linux-gnu/lib/rustlib/thumbv7em-none-eabihf/lib/libcore-6c7f6233b52d4c10.rlib(core-6c7f6233b52d4c10.core.852c90009024f853-cgu.0.rcgu.o):(.text.unlikely._ZN4core9panicking11panic_const23panic_const_rem_by_zero17h5f86da0fe2d6ab22E)
    b3d6     b3d6        0     1                 $t
    b3d7     b3d7       26     1                 core::panicking::panic_const::panic_const_rem_by_zero::h5f86da0fe2d6ab22
    b3fc     b3fc       6c     2         /home/ferrite/.rustup/toolchains/nightly-2024-09-17-x86_64-unknown-linux-gnu/lib/rustlib/thumbv7em-none-eabihf/lib/libcore-6c7f6233b52d4c10.rlib(core-6c7f6233b52d4c10.core.852c90009024f853-cgu.0.rcgu.o):(.text._ZN4core3fmt3num52_$LT$impl$u20$core..fmt..LowerHex$u20$for$u20$i8$GT$3fmt17ha27cbe6175373de2E)
    b3fc     b3fc        0     1                 $t
    b3fd     b3fd       6c     1                 core::fmt::num::_$LT$impl$u20$core..fmt..LowerHex$u20$for$u20$i8$GT$::fmt::ha27cbe6175373de2
    b3fd     b3fd       6c     1                 core::fmt::num::_$LT$impl$u20$core..fmt..LowerHex$u20$for$u20$u8$GT$::fmt::h432a811949c59f7a
    b468     b468       6c     2         /home/ferrite/.rustup/toolchains/nightly-2024-09-17-x86_64-unknown-linux-gnu/lib/rustlib/thumbv7em-none-eabihf/lib/libcore-6c7f6233b52d4c10.rlib(core-6c7f6233b52d4c10.core.852c90009024f853-cgu.0.rcgu.o):(.text._ZN4core3fmt3num52_$LT$impl$u20$core..fmt..UpperHex$u20$for$u20$i8$GT$3fmt17h49e5084acfd873eaE)
    b468     b468        0     1                 $t
    b469     b469       6c     1                 core::fmt::num::_$LT$impl$u20$core..fmt..UpperHex$u20$for$u20$i8$GT$::fmt::h49e5084acfd873ea
    b469     b469       6c     1                 core::fmt::num::_$LT$impl$u20$core..fmt..UpperHex$u20$for$u20$u8$GT$::fmt::hf856a598fba567cf
    b4d4     b4d4       b2     2         /home/ferrite/.rustup/toolchains/nightly-2024-09-17-x86_64-unknown-linux-gnu/lib/rustlib/thumbv7em-none-eabihf/lib/libcore-6c7f6233b52d4c10.rlib(core-6c7f6233b52d4c10.core.852c90009024f853-cgu.0.rcgu.o):(.text._ZN4core3fmt3num53_$LT$impl$u20$core..fmt..LowerHex$u20$for$u20$i16$GT$3fmt17h8e9eecb462844c08E)
    b4d4     b4d4        0     1                 $t
    b4d5     b4d5       b2     1                 core::fmt::num::_$LT$impl$u20$core..fmt..LowerHex$u20$for$u20$i16$GT$::fmt::h8e9eecb462844c08
    b4d5     b4d5       b2     1                 core::fmt::num::_$LT$impl$u20$core..fmt..LowerHex$u20$for$u20$u16$GT$::fmt::h96add474fabb42d5
    b586     b586       c6     2         /home/ferrite/.rustup/toolchains/nightly-2024-09-17-x86_64-unknown-linux-gnu/lib/rustlib/thumbv7em-none-eabihf/lib/libcore-6c7f6233b52d4c10.rlib(core-6c7f6233b52d4c10.core.852c90009024f853-cgu.0.rcgu.o):(.text._ZN4core3fmt3num53_$LT$impl$u20$core..fmt..LowerHex$u20$for$u20$i32$GT$3fmt17h7f62c8a03284bbfdE)
    b586     b586        0     1                 $t
    b587     b587       c6     1                 core::fmt::num::_$LT$impl$u20$core..fmt..LowerHex$u20$for$u20$i32$GT$::fmt::h7f62c8a03284bbfd
    b587     b587       c6     1                 core::fmt::num::_$LT$impl$u20$core..fmt..LowerHex$u20$for$u20$usize$GT$::fmt::h153e65c8b07e81a5
    b587     b587       c6     1                 core::fmt::num::_$LT$impl$u20$core..fmt..LowerHex$u20$for$u20$isize$GT$::fmt::h39fe4e2f7d1aa7a1
    b587     b587       c6     1                 core::fmt::num::_$LT$impl$u20$core..fmt..LowerHex$u20$for$u20$u32$GT$::fmt::h1f2d2ec9763c8b63
    b64c     b64c       c6     2         /home/ferrite/.rustup/toolchains/nightly-2024-09-17-x86_64-unknown-linux-gnu/lib/rustlib/thumbv7em-none-eabihf/lib/libcore-6c7f6233b52d4c10.rlib(core-6c7f6233b52d4c10.core.852c90009024f853-cgu.0.rcgu.o):(.text._ZN4core3fmt3num53_$LT$impl$u20$core..fmt..UpperHex$u20$for$u20$i32$GT$3fmt17h18c3110f90b5034eE)
    b64c     b64c        0     1                 $t
    b64d     b64d       c6     1                 core::fmt::num::_$LT$impl$u20$core..fmt..UpperHex$u20$for$u20$i32$GT$::fmt::h18c3110f90b5034e
    b64d     b64d       c6     1                 core::fmt::num::_$LT$impl$u20$core..fmt..UpperHex$u20$for$u20$usize$GT$::fmt::h0f6ecb5be1bc9807
    b64d     b64d       c6     1                 core::fmt::num::_$LT$impl$u20$core..fmt..UpperHex$u20$for$u20$isize$GT$::fmt::h38770bd23d0e1573
    b64d     b64d       c6     1                 core::fmt::num::_$LT$impl$u20$core..fmt..UpperHex$u20$for$u20$u32$GT$::fmt::h66e4fcd9c480279a
    b712     b712       72     2         /home/ferrite/.rustup/toolchains/nightly-2024-09-17-x86_64-unknown-linux-gnu/lib/rustlib/thumbv7em-none-eabihf/lib/libcore-6c7f6233b52d4c10.rlib(core-6c7f6233b52d4c10.core.852c90009024f853-cgu.0.rcgu.o):(.text._ZN4core3fmt3num3imp51_$LT$impl$u20$core..fmt..Display$u20$for$u20$u8$GT$3fmt17he429b30a2b74362fE)
    b712     b712        0     1                 $t
    b713     b713       72     1                 core::fmt::num::imp::_$LT$impl$u20$core..fmt..Display$u20$for$u20$u8$GT$::fmt::he429b30a2b74362f
    b784     b784       ee     2         /home/ferrite/.rustup/toolchains/nightly-2024-09-17-x86_64-unknown-linux-gnu/lib/rustlib/thumbv7em-none-eabihf/lib/libcore-6c7f6233b52d4c10.rlib(core-6c7f6233b52d4c10.core.852c90009024f853-cgu.0.rcgu.o):(.text._ZN4core3fmt3num3imp52_$LT$impl$u20$core..fmt..Display$u20$for$u20$u32$GT$3fmt17h740d9d329de9378dE)
    b784     b784        0     1                 $t
    b785     b785       ee     1                 core::fmt::num::imp::_$LT$impl$u20$core..fmt..Display$u20$for$u20$u32$GT$::fmt::h740d9d329de9378d
    b785     b785       ee     1                 core::fmt::num::imp::_$LT$impl$u20$core..fmt..Display$u20$for$u20$usize$GT$::fmt::hfff846d17e5e3b19
    b872     b872        8     2         /home/ferrite/.rustup/toolchains/nightly-2024-09-17-x86_64-unknown-linux-gnu/lib/rustlib/thumbv7em-none-eabihf/lib/libcore-6c7f6233b52d4c10.rlib(core-6c7f6233b52d4c10.core.852c90009024f853-cgu.0.rcgu.o):(.text._ZN42_$LT$$RF$T$u20$as$u20$core..fmt..Debug$GT$3fmt17h351112f956d041b5E)
    b872     b872        0     1                 $t
    b873     b873        8     1                 _$LT$$RF$T$u20$as$u20$core..fmt..Debug$GT$::fmt::h351112f956d041b5
    b87a     b87a        c     2         /home/ferrite/.rustup/toolchains/nightly-2024-09-17-x86_64-unknown-linux-gnu/lib/rustlib/thumbv7em-none-eabihf/lib/libcore-6c7f6233b52d4c10.rlib(core-6c7f6233b52d4c10.core.852c90009024f853-cgu.0.rcgu.o):(.text._ZN44_$LT$$RF$T$u20$as$u20$core..fmt..Display$GT$3fmt17h17106c9c14b17303E)
    b87a     b87a        0     1                 $t
    b87b     b87b        c     1                 _$LT$$RF$T$u20$as$u20$core..fmt..Display$GT$::fmt::h17106c9c14b17303
    b886     b886       74     2         /home/ferrite/.rustup/toolchains/nightly-2024-09-17-x86_64-unknown-linux-gnu/lib/rustlib/thumbv7em-none-eabihf/lib/libcompiler_builtins-53d64bf4200dbde9.rlib(compiler_builtins-53d64bf4200dbde9.compiler_builtins.cb1056fec953b42b-cgu.080.rcgu.o):(.text.memcmp)
    b886     b886        0     1                 $t
    b887     b887       74     1                 memcmp
    b8fa     b8fa       a2     2         /home/ferrite/.rustup/toolchains/nightly-2024-09-17-x86_64-unknown-linux-gnu/lib/rustlib/thumbv7em-none-eabihf/lib/libcompiler_builtins-53d64bf4200dbde9.rlib(compiler_builtins-53d64bf4200dbde9.compiler_builtins.cb1056fec953b42b-cgu.129.rcgu.o):(.text.__aeabi_memset4)
    b8fa     b8fa        0     1                 $t
    b8fb     b8fb       a2     1                 __aeabi_memset4
    b99c     b99c       a4     2         /home/ferrite/.rustup/toolchains/nightly-2024-09-17-x86_64-unknown-linux-gnu/lib/rustlib/thumbv7em-none-eabihf/lib/libcompiler_builtins-53d64bf4200dbde9.rlib(compiler_builtins-53d64bf4200dbde9.compiler_builtins.cb1056fec953b42b-cgu.159.rcgu.o):(.text.__aeabi_memclr8)
    b99c     b99c        0     1                 $t
    b99d     b99d       a4     1                 __aeabi_memclr8
    ba40     ba40       a4     2         /home/ferrite/.rustup/toolchains/nightly-2024-09-17-x86_64-unknown-linux-gnu/lib/rustlib/thumbv7em-none-eabihf/lib/libcompiler_builtins-53d64bf4200dbde9.rlib(compiler_builtins-53d64bf4200dbde9.compiler_builtins.cb1056fec953b42b-cgu.175.rcgu.o):(.text.__aeabi_memclr4)
    ba40     ba40        0     1                 $t
    ba41     ba41       a4     1                 __aeabi_memclr4
    bae4     bae4        4     2         /home/ferrite/.rustup/toolchains/nightly-2024-09-17-x86_64-unknown-linux-gnu/lib/rustlib/thumbv7em-none-eabihf/lib/libcompiler_builtins-53d64bf4200dbde9.rlib(compiler_builtins-53d64bf4200dbde9.compiler_builtins.cb1056fec953b42b-cgu.235.rcgu.o):(.text.__aeabi_memmove)
    bae4     bae4        0     1                 $t
    bae5     bae5        4     1                 __aeabi_memmove
    bae8     bae8      148     2         /home/ferrite/.rustup/toolchains/nightly-2024-09-17-x86_64-unknown-linux-gnu/lib/rustlib/thumbv7em-none-eabihf/lib/libcompiler_builtins-53d64bf4200dbde9.rlib(compiler_builtins-53d64bf4200dbde9.compiler_builtins.cb1056fec953b42b-cgu.010.rcgu.o):(.text._ZN17compiler_builtins3mem6memcpy17h6c204cf2c29bedd0E)
    bae8     bae8        0     1                 $t
    bae9     bae9      148     1                 compiler_builtins::mem::memcpy::h6c204cf2c29bedd0
    bc30     bc30      33e     2         /home/ferrite/.rustup/toolchains/nightly-2024-09-17-x86_64-unknown-linux-gnu/lib/rustlib/thumbv7em-none-eabihf/lib/libcompiler_builtins-53d64bf4200dbde9.rlib(compiler_builtins-53d64bf4200dbde9.compiler_builtins.cb1056fec953b42b-cgu.010.rcgu.o):(.text._ZN17compiler_builtins3mem7memmove17ha44af9696316221cE)
    bc30     bc30        0     1                 $t
    bc31     bc31      33e     1                 compiler_builtins::mem::memmove::ha44af9696316221c
    bf6e     bf6e        4     2         /home/ferrite/.rustup/toolchains/nightly-2024-09-17-x86_64-unknown-linux-gnu/lib/rustlib/thumbv7em-none-eabihf/lib/libcompiler_builtins-53d64bf4200dbde9.rlib(compiler_builtins-53d64bf4200dbde9.compiler_builtins.cb1056fec953b42b-cgu.251.rcgu.o):(.text.__aeabi_memcpy)
    bf6e     bf6e        0     1                 $t
    bf6f     bf6f        4     1                 __aeabi_memcpy
    bf72     bf72       92     2         /home/ferrite/.rustup/toolchains/nightly-2024-09-17-x86_64-unknown-linux-gnu/lib/rustlib/thumbv7em-none-eabihf/lib/libcompiler_builtins-53d64bf4200dbde9.rlib(compiler_builtins-53d64bf4200dbde9.compiler_builtins.cb1056fec953b42b-cgu.279.rcgu.o):(.text.__aeabi_memclr)
    bf72     bf72        0     1                 $t
    bf73     bf73       92     1                 __aeabi_memclr
    c004     c004       a4     2         /home/ferrite/.rustup/toolchains/nightly-2024-09-17-x86_64-unknown-linux-gnu/lib/rustlib/thumbv7em-none-eabihf/lib/libcompiler_builtins-53d64bf4200dbde9.rlib(compiler_builtins-53d64bf4200dbde9.compiler_builtins.cb1056fec953b42b-cgu.335.rcgu.o):(.text.__aeabi_memcpy4)
    c004     c004        0     1                 $t
    c005     c005       a4     1                 __aeabi_memcpy4
    c0a8     c0a8       14     2         /home/ferrite/rusty1968/initiative/aspeed-rust/target/thumbv7em-none-eabihf/release/deps/libcortex_m_rt-7f0c5500b9abbdfd.rlib(cortex-m-rt.o):(.HardFaultTrampoline)
    c0a8     c0a8        0     1                 $t
    c0a9     c0a9       14     1                 HardFaultTrampoline
    c0bc     c0bc        2     2         /home/ferrite/rusty1968/initiative/aspeed-rust/target/thumbv7em-none-eabihf/release/deps/libcortex_m_rt-7f0c5500b9abbdfd.rlib(cortex_m_rt-7f0c5500b9abbdfd.cortex_m_rt.6f21be2bbd52da44-cgu.0.rcgu.o):(.HardFault.default)
    c0bc     c0bc        0     1                 $t
    c0bd     c0bd        2     1                 HardFault_
    c0be     c0be        2     1         . = ALIGN ( 4 )
    c0c0     c0c0        0     1         __etext = .
    c0c0     c0c0     5b64     4 .rodata
    c0c0     c0c0       15     1         /home/ferrite/rusty1968/initiative/aspeed-rust/target/thumbv7em-none-eabihf/release/deps/aspeed_ddk-9593e973eaaa5586.aspeed_ddk.875e341dad0a8fe1-cgu.0.rcgu.o:(.rodata..Lanon.edc25cb9793d7ebf83787a9ec5197bad.0)
    c0d8     c0d8        8     4         /home/ferrite/rusty1968/initiative/aspeed-rust/target/thumbv7em-none-eabihf/release/deps/aspeed_ddk-9593e973eaaa5586.aspeed_ddk.875e341dad0a8fe1-cgu.0.rcgu.o:(.rodata..Lanon.edc25cb9793d7ebf83787a9ec5197bad.1)
    c0d8     c0d8        8     1                 .Lanon.edc25cb9793d7ebf83787a9ec5197bad.1
    c0e0     c0e0      788     1         /home/ferrite/rusty1968/initiative/aspeed-rust/target/thumbv7em-none-eabihf/release/deps/aspeed_ddk-9593e973eaaa5586.aspeed_ddk.875e341dad0a8fe1-cgu.0.rcgu.o:(.rodata..Lanon.edc25cb9793d7ebf83787a9ec5197bad.2)
    c0e0     c0e0      788     1                 .Lanon.edc25cb9793d7ebf83787a9ec5197bad.2
    c868     c868       51     1         /home/ferrite/rusty1968/initiative/aspeed-rust/target/thumbv7em-none-eabihf/release/deps/aspeed_ddk-9593e973eaaa5586.aspeed_ddk.875e341dad0a8fe1-cgu.0.rcgu.o:(.rodata..Lanon.edc25cb9793d7ebf83787a9ec5197bad.3)
    c8b9     c8b9        c     1         /home/ferrite/rusty1968/initiative/aspeed-rust/target/thumbv7em-none-eabihf/release/deps/aspeed_ddk-9593e973eaaa5586.aspeed_ddk.875e341dad0a8fe1-cgu.0.rcgu.o:(.rodata..Lanon.edc25cb9793d7ebf83787a9ec5197bad.4)
    c8c5     c8c5        5     1         /home/ferrite/rusty1968/initiative/aspeed-rust/target/thumbv7em-none-eabihf/release/deps/aspeed_ddk-9593e973eaaa5586.aspeed_ddk.875e341dad0a8fe1-cgu.0.rcgu.o:(.rodata..Lanon.edc25cb9793d7ebf83787a9ec5197bad.5)
    c8cc     c8cc       10     4         /home/ferrite/rusty1968/initiative/aspeed-rust/target/thumbv7em-none-eabihf/release/deps/aspeed_ddk-9593e973eaaa5586.aspeed_ddk.875e341dad0a8fe1-cgu.0.rcgu.o:(.rodata..Lanon.edc25cb9793d7ebf83787a9ec5197bad.6)
    c8cc     c8cc       10     1                 .Lanon.edc25cb9793d7ebf83787a9ec5197bad.6
    c8dc     c8dc       1e     1         /home/ferrite/rusty1968/initiative/aspeed-rust/target/thumbv7em-none-eabihf/release/deps/aspeed_ddk-9593e973eaaa5586.aspeed_ddk.875e341dad0a8fe1-cgu.0.rcgu.o:(.rodata..Lanon.edc25cb9793d7ebf83787a9ec5197bad.7)
    c8fc     c8fc        8     4         /home/ferrite/rusty1968/initiative/aspeed-rust/target/thumbv7em-none-eabihf/release/deps/aspeed_ddk-9593e973eaaa5586.aspeed_ddk.875e341dad0a8fe1-cgu.0.rcgu.o:(.rodata..Lanon.edc25cb9793d7ebf83787a9ec5197bad.8)
    c8fc     c8fc        8     1                 .Lanon.edc25cb9793d7ebf83787a9ec5197bad.8
    c904     c904       1e     1         /home/ferrite/rusty1968/initiative/aspeed-rust/target/thumbv7em-none-eabihf/release/deps/aspeed_ddk-9593e973eaaa5586.aspeed_ddk.875e341dad0a8fe1-cgu.0.rcgu.o:(.rodata..Lanon.edc25cb9793d7ebf83787a9ec5197bad.9)
    c924     c924        8     4         /home/ferrite/rusty1968/initiative/aspeed-rust/target/thumbv7em-none-eabihf/release/deps/aspeed_ddk-9593e973eaaa5586.aspeed_ddk.875e341dad0a8fe1-cgu.0.rcgu.o:(.rodata..Lanon.edc25cb9793d7ebf83787a9ec5197bad.10)
    c924     c924        8     1                 .Lanon.edc25cb9793d7ebf83787a9ec5197bad.10
    c92c     c92c       18     1         /home/ferrite/rusty1968/initiative/aspeed-rust/target/thumbv7em-none-eabihf/release/deps/aspeed_ddk-9593e973eaaa5586.aspeed_ddk.875e341dad0a8fe1-cgu.0.rcgu.o:(.rodata..Lanon.edc25cb9793d7ebf83787a9ec5197bad.11)
    c944     c944        a     1         /home/ferrite/rusty1968/initiative/aspeed-rust/target/thumbv7em-none-eabihf/release/deps/aspeed_ddk-9593e973eaaa5586.aspeed_ddk.875e341dad0a8fe1-cgu.0.rcgu.o:(.rodata..Lanon.edc25cb9793d7ebf83787a9ec5197bad.12)
    c950     c950       10     4         /home/ferrite/rusty1968/initiative/aspeed-rust/target/thumbv7em-none-eabihf/release/deps/aspeed_ddk-9593e973eaaa5586.aspeed_ddk.875e341dad0a8fe1-cgu.0.rcgu.o:(.rodata..Lanon.edc25cb9793d7ebf83787a9ec5197bad.13)
    c950     c950       10     1                 .Lanon.edc25cb9793d7ebf83787a9ec5197bad.13
    c960     c960       10     4         /home/ferrite/rusty1968/initiative/aspeed-rust/target/thumbv7em-none-eabihf/release/deps/aspeed_ddk-9593e973eaaa5586.aspeed_ddk.875e341dad0a8fe1-cgu.0.rcgu.o:(.rodata..Lanon.edc25cb9793d7ebf83787a9ec5197bad.14)
    c960     c960       10     1                 .Lanon.edc25cb9793d7ebf83787a9ec5197bad.14
    c970     c970       2b     1         /home/ferrite/rusty1968/initiative/aspeed-rust/target/thumbv7em-none-eabihf/release/deps/aspeed_ddk-9593e973eaaa5586.aspeed_ddk.875e341dad0a8fe1-cgu.0.rcgu.o:(.rodata..Lanon.edc25cb9793d7ebf83787a9ec5197bad.15)
    c970     c970       2b     1                 .Lanon.edc25cb9793d7ebf83787a9ec5197bad.15
    c99c     c99c       10     4         /home/ferrite/rusty1968/initiative/aspeed-rust/target/thumbv7em-none-eabihf/release/deps/aspeed_ddk-9593e973eaaa5586.aspeed_ddk.875e341dad0a8fe1-cgu.0.rcgu.o:(.rodata..Lanon.edc25cb9793d7ebf83787a9ec5197bad.16)
    c99c     c99c       10     1                 .Lanon.edc25cb9793d7ebf83787a9ec5197bad.16
    c9ac     c9ac       10     4         /home/ferrite/rusty1968/initiative/aspeed-rust/target/thumbv7em-none-eabihf/release/deps/aspeed_ddk-9593e973eaaa5586.aspeed_ddk.875e341dad0a8fe1-cgu.0.rcgu.o:(.rodata..Lanon.edc25cb9793d7ebf83787a9ec5197bad.17)
    c9ac     c9ac       10     1                 .Lanon.edc25cb9793d7ebf83787a9ec5197bad.17
    c9bc     c9bc       16     1         /home/ferrite/rusty1968/initiative/aspeed-rust/target/thumbv7em-none-eabihf/release/deps/aspeed_ddk-9593e973eaaa5586.aspeed_ddk.875e341dad0a8fe1-cgu.0.rcgu.o:(.rodata.anon.edc25cb9793d7ebf83787a9ec5197bad.22.llvm.11022154256357222491)
    c9bc     c9bc       16     1                 anon.edc25cb9793d7ebf83787a9ec5197bad.22.llvm.11022154256357222491
    c9d4     c9d4        8     4         /home/ferrite/rusty1968/initiative/aspeed-rust/target/thumbv7em-none-eabihf/release/deps/aspeed_ddk-9593e973eaaa5586.aspeed_ddk.875e341dad0a8fe1-cgu.0.rcgu.o:(.rodata.anon.edc25cb9793d7ebf83787a9ec5197bad.23.llvm.11022154256357222491)
    c9d4     c9d4        8     1                 anon.edc25cb9793d7ebf83787a9ec5197bad.23.llvm.11022154256357222491
    c9dc     c9dc       5f     1         /home/ferrite/rusty1968/initiative/aspeed-rust/target/thumbv7em-none-eabihf/release/deps/aspeed_ddk-9593e973eaaa5586.aspeed_ddk.875e341dad0a8fe1-cgu.0.rcgu.o:(.rodata.anon.edc25cb9793d7ebf83787a9ec5197bad.24.llvm.11022154256357222491)
    c9dc     c9dc       5f     1                 anon.edc25cb9793d7ebf83787a9ec5197bad.24.llvm.11022154256357222491
    ca3c     ca3c       10     4         /home/ferrite/rusty1968/initiative/aspeed-rust/target/thumbv7em-none-eabihf/release/deps/aspeed_ddk-9593e973eaaa5586.aspeed_ddk.875e341dad0a8fe1-cgu.0.rcgu.o:(.rodata.anon.edc25cb9793d7ebf83787a9ec5197bad.25.llvm.11022154256357222491)
    ca3c     ca3c       10     1                 anon.edc25cb9793d7ebf83787a9ec5197bad.25.llvm.11022154256357222491
    ca4c     ca4c       10     4         /home/ferrite/rusty1968/initiative/aspeed-rust/target/thumbv7em-none-eabihf/release/deps/aspeed_ddk-9593e973eaaa5586.aspeed_ddk.875e341dad0a8fe1-cgu.0.rcgu.o:(.rodata.anon.edc25cb9793d7ebf83787a9ec5197bad.26.llvm.11022154256357222491)
    ca4c     ca4c       10     1                 anon.edc25cb9793d7ebf83787a9ec5197bad.26.llvm.11022154256357222491
    ca5c     ca5c       18     4         /home/ferrite/rusty1968/initiative/aspeed-rust/target/thumbv7em-none-eabihf/release/deps/aspeed_ddk-9593e973eaaa5586.aspeed_ddk.875e341dad0a8fe1-cgu.0.rcgu.o:(.rodata.anon.edc25cb9793d7ebf83787a9ec5197bad.27.llvm.11022154256357222491)
    ca5c     ca5c       18     1                 anon.edc25cb9793d7ebf83787a9ec5197bad.27.llvm.11022154256357222491
    ca74     ca74        2     1         /home/ferrite/rusty1968/initiative/aspeed-rust/target/thumbv7em-none-eabihf/release/deps/aspeed_ddk-9593e973eaaa5586.aspeed_ddk.875e341dad0a8fe1-cgu.0.rcgu.o:(.rodata..Lanon.edc25cb9793d7ebf83787a9ec5197bad.28)
    ca74     ca74        2     1                 .Lanon.edc25cb9793d7ebf83787a9ec5197bad.28
    ca78     ca78       10     4         /home/ferrite/rusty1968/initiative/aspeed-rust/target/thumbv7em-none-eabihf/release/deps/aspeed_ddk-9593e973eaaa5586.aspeed_ddk.875e341dad0a8fe1-cgu.0.rcgu.o:(.rodata..Lanon.edc25cb9793d7ebf83787a9ec5197bad.29)
    ca78     ca78       10     1                 .Lanon.edc25cb9793d7ebf83787a9ec5197bad.29
    ca88     ca88       10     4         /home/ferrite/rusty1968/initiative/aspeed-rust/target/thumbv7em-none-eabihf/release/deps/aspeed_ddk-9593e973eaaa5586.aspeed_ddk.875e341dad0a8fe1-cgu.0.rcgu.o:(.rodata..Lanon.edc25cb9793d7ebf83787a9ec5197bad.30)
    ca88     ca88       10     1                 .Lanon.edc25cb9793d7ebf83787a9ec5197bad.30
    ca98     ca98       15     1         /home/ferrite/rusty1968/initiative/aspeed-rust/target/thumbv7em-none-eabihf/release/deps/aspeed_ddk-9593e973eaaa5586.aspeed_ddk.875e341dad0a8fe1-cgu.0.rcgu.o:(.rodata.anon.edc25cb9793d7ebf83787a9ec5197bad.31.llvm.11022154256357222491)
    ca98     ca98       15     1                 anon.edc25cb9793d7ebf83787a9ec5197bad.31.llvm.11022154256357222491
    cab0     cab0        8     4         /home/ferrite/rusty1968/initiative/aspeed-rust/target/thumbv7em-none-eabihf/release/deps/aspeed_ddk-9593e973eaaa5586.aspeed_ddk.875e341dad0a8fe1-cgu.0.rcgu.o:(.rodata.anon.edc25cb9793d7ebf83787a9ec5197bad.32.llvm.11022154256357222491)
    cab0     cab0        8     1                 anon.edc25cb9793d7ebf83787a9ec5197bad.32.llvm.11022154256357222491
    cab8     cab8        7     1         /home/ferrite/rusty1968/initiative/aspeed-rust/target/thumbv7em-none-eabihf/release/deps/aspeed_ddk-9593e973eaaa5586.aspeed_ddk.875e341dad0a8fe1-cgu.0.rcgu.o:(.rodata..Lanon.edc25cb9793d7ebf83787a9ec5197bad.33)
    cabf     cabf        6     1         /home/ferrite/rusty1968/initiative/aspeed-rust/target/thumbv7em-none-eabihf/release/deps/aspeed_ddk-9593e973eaaa5586.aspeed_ddk.875e341dad0a8fe1-cgu.0.rcgu.o:(.rodata..Lanon.edc25cb9793d7ebf83787a9ec5197bad.34)
    cac5     cac5        7     1         /home/ferrite/rusty1968/initiative/aspeed-rust/target/thumbv7em-none-eabihf/release/deps/aspeed_ddk-9593e973eaaa5586.aspeed_ddk.875e341dad0a8fe1-cgu.0.rcgu.o:(.rodata..Lanon.edc25cb9793d7ebf83787a9ec5197bad.35)
    cacc     cacc        5     1         /home/ferrite/rusty1968/initiative/aspeed-rust/target/thumbv7em-none-eabihf/release/deps/aspeed_ddk-9593e973eaaa5586.aspeed_ddk.875e341dad0a8fe1-cgu.0.rcgu.o:(.rodata..Lanon.edc25cb9793d7ebf83787a9ec5197bad.36)
    cad1     cad1        7     1         /home/ferrite/rusty1968/initiative/aspeed-rust/target/thumbv7em-none-eabihf/release/deps/aspeed_ddk-9593e973eaaa5586.aspeed_ddk.875e341dad0a8fe1-cgu.0.rcgu.o:(.rodata..Lanon.edc25cb9793d7ebf83787a9ec5197bad.37)
    cad8     cad8       10     4         /home/ferrite/rusty1968/initiative/aspeed-rust/target/thumbv7em-none-eabihf/release/deps/aspeed_ddk-9593e973eaaa5586.aspeed_ddk.875e341dad0a8fe1-cgu.0.rcgu.o:(.rodata..Lanon.edc25cb9793d7ebf83787a9ec5197bad.38)
    cad8     cad8       10     1                 .Lanon.edc25cb9793d7ebf83787a9ec5197bad.38
    cae8     cae8        2     1         /home/ferrite/rusty1968/initiative/aspeed-rust/target/thumbv7em-none-eabihf/release/deps/aspeed_ddk-9593e973eaaa5586.aspeed_ddk.875e341dad0a8fe1-cgu.0.rcgu.o:(.rodata..Lanon.edc25cb9793d7ebf83787a9ec5197bad.39)
    cae8     cae8        2     1                 .Lanon.edc25cb9793d7ebf83787a9ec5197bad.39
    caec     caec       10     4         /home/ferrite/rusty1968/initiative/aspeed-rust/target/thumbv7em-none-eabihf/release/deps/aspeed_ddk-9593e973eaaa5586.aspeed_ddk.875e341dad0a8fe1-cgu.0.rcgu.o:(.rodata..Lanon.edc25cb9793d7ebf83787a9ec5197bad.40)
    caec     caec       10     1                 .Lanon.edc25cb9793d7ebf83787a9ec5197bad.40
    cafc     cafc        3     1         /home/ferrite/rusty1968/initiative/aspeed-rust/target/thumbv7em-none-eabihf/release/deps/aspeed_ddk-9593e973eaaa5586.aspeed_ddk.875e341dad0a8fe1-cgu.0.rcgu.o:(.rodata..Lanon.edc25cb9793d7ebf83787a9ec5197bad.41)
    cafc     cafc        3     1                 .Lanon.edc25cb9793d7ebf83787a9ec5197bad.41
    cb00     cb00       60     4         <internal>:(.rodata.cst16)
    cb60     cb60        c     1         <internal>:(.rodata.cst4)
    cb6c     cb6c       30     4         <internal>:(.rodata.cst8)
    cb9c     cb9c       10     4         /home/ferrite/rusty1968/initiative/aspeed-rust/target/thumbv7em-none-eabihf/release/deps/aspeed_ddk-9593e973eaaa5586.aspeed_ddk.875e341dad0a8fe1-cgu.0.rcgu.o:(.rodata..Lanon.edc25cb9793d7ebf83787a9ec5197bad.46)
    cb9c     cb9c       10     1                 .Lanon.edc25cb9793d7ebf83787a9ec5197bad.46
    cbac     cbac        5     1         /home/ferrite/rusty1968/initiative/aspeed-rust/target/thumbv7em-none-eabihf/release/deps/aspeed_ddk-9593e973eaaa5586.aspeed_ddk.875e341dad0a8fe1-cgu.0.rcgu.o:(.rodata..Lanon.edc25cb9793d7ebf83787a9ec5197bad.47)
    cbac     cbac        5     1                 .Lanon.edc25cb9793d7ebf83787a9ec5197bad.47
    cbb4     cbb4       14     4         /home/ferrite/rusty1968/initiative/aspeed-rust/target/thumbv7em-none-eabihf/release/deps/aspeed_ddk-9593e973eaaa5586.aspeed_ddk.875e341dad0a8fe1-cgu.0.rcgu.o:(.rodata..Lswitch.table._ZN42_$LT$$RF$T$u20$as$u20$core..fmt..Debug$GT$3fmt17h0447519422a59031E)
    cbb4     cbb4       14     1                 .Lswitch.table._ZN42_$LT$$RF$T$u20$as$u20$core..fmt..Debug$GT$3fmt17h0447519422a59031E
    cbc8     cbc8       14     4         /home/ferrite/rusty1968/initiative/aspeed-rust/target/thumbv7em-none-eabihf/release/deps/aspeed_ddk-9593e973eaaa5586.aspeed_ddk.875e341dad0a8fe1-cgu.0.rcgu.o:(.rodata..Lswitch.table._ZN42_$LT$$RF$T$u20$as$u20$core..fmt..Debug$GT$3fmt17h0447519422a59031E.3)
    cbc8     cbc8       14     1                 .Lswitch.table._ZN42_$LT$$RF$T$u20$as$u20$core..fmt..Debug$GT$3fmt17h0447519422a59031E.3
    cbdc     cbdc        c     4         /home/ferrite/rusty1968/initiative/aspeed-rust/target/thumbv7em-none-eabihf/release/deps/aspeed_ddk-9593e973eaaa5586.aspeed_ddk.875e341dad0a8fe1-cgu.0.rcgu.o:(.rodata..Lswitch.table._ZN42_$LT$$RF$T$u20$as$u20$core..fmt..Debug$GT$3fmt17h4ecd398eebaf10f2E)
    cbdc     cbdc        c     1                 .Lswitch.table._ZN42_$LT$$RF$T$u20$as$u20$core..fmt..Debug$GT$3fmt17h4ecd398eebaf10f2E
    cbe8     cbe8        c     4         /home/ferrite/rusty1968/initiative/aspeed-rust/target/thumbv7em-none-eabihf/release/deps/aspeed_ddk-9593e973eaaa5586.aspeed_ddk.875e341dad0a8fe1-cgu.0.rcgu.o:(.rodata..Lswitch.table._ZN42_$LT$$RF$T$u20$as$u20$core..fmt..Debug$GT$3fmt17h4ecd398eebaf10f2E.4)
    cbe8     cbe8        c     1                 .Lswitch.table._ZN42_$LT$$RF$T$u20$as$u20$core..fmt..Debug$GT$3fmt17h4ecd398eebaf10f2E.4
    cbf4     cbf4       39     1         /home/ferrite/rusty1968/initiative/aspeed-rust/target/thumbv7em-none-eabihf/release/deps/aspeed_ddk-9593e973eaaa5586.aspeed_ddk.875e341dad0a8fe1-cgu.1.rcgu.o:(.rodata..Lanon.0d35207db7076e77b1cea5e35c80739e.0)
    cc2d     cc2d       13     1         /home/ferrite/rusty1968/initiative/aspeed-rust/target/thumbv7em-none-eabihf/release/deps/aspeed_ddk-9593e973eaaa5586.aspeed_ddk.875e341dad0a8fe1-cgu.1.rcgu.o:(.rodata..Lanon.0d35207db7076e77b1cea5e35c80739e.1)
    cc2d     cc2d       13     1                 .Lanon.0d35207db7076e77b1cea5e35c80739e.1
    cc40     cc40       13     1         /home/ferrite/rusty1968/initiative/aspeed-rust/target/thumbv7em-none-eabihf/release/deps/aspeed_ddk-9593e973eaaa5586.aspeed_ddk.875e341dad0a8fe1-cgu.1.rcgu.o:(.rodata..Lanon.0d35207db7076e77b1cea5e35c80739e.2)
    cc40     cc40       13     1                 .Lanon.0d35207db7076e77b1cea5e35c80739e.2
    cc53     cc53       13     1         /home/ferrite/rusty1968/initiative/aspeed-rust/target/thumbv7em-none-eabihf/release/deps/aspeed_ddk-9593e973eaaa5586.aspeed_ddk.875e341dad0a8fe1-cgu.1.rcgu.o:(.rodata..Lanon.0d35207db7076e77b1cea5e35c80739e.3)
    cc53     cc53       13     1                 .Lanon.0d35207db7076e77b1cea5e35c80739e.3
    cc68     cc68       10     4         /home/ferrite/rusty1968/initiative/aspeed-rust/target/thumbv7em-none-eabihf/release/deps/aspeed_ddk-9593e973eaaa5586.aspeed_ddk.875e341dad0a8fe1-cgu.1.rcgu.o:(.rodata..Lanon.0d35207db7076e77b1cea5e35c80739e.4)
    cc68     cc68       10     1                 .Lanon.0d35207db7076e77b1cea5e35c80739e.4
    cc78     cc78       10     4         /home/ferrite/rusty1968/initiative/aspeed-rust/target/thumbv7em-none-eabihf/release/deps/aspeed_ddk-9593e973eaaa5586.aspeed_ddk.875e341dad0a8fe1-cgu.1.rcgu.o:(.rodata..Lanon.0d35207db7076e77b1cea5e35c80739e.5)
    cc78     cc78       10     1                 .Lanon.0d35207db7076e77b1cea5e35c80739e.5
    cc88     cc88       10     4         /home/ferrite/rusty1968/initiative/aspeed-rust/target/thumbv7em-none-eabihf/release/deps/aspeed_ddk-9593e973eaaa5586.aspeed_ddk.875e341dad0a8fe1-cgu.1.rcgu.o:(.rodata..Lanon.0d35207db7076e77b1cea5e35c80739e.8)
    cc88     cc88       10     1                 .Lanon.0d35207db7076e77b1cea5e35c80739e.8
    cc98     cc98       17     1         /home/ferrite/rusty1968/initiative/aspeed-rust/target/thumbv7em-none-eabihf/release/deps/aspeed_ddk-9593e973eaaa5586.aspeed_ddk.875e341dad0a8fe1-cgu.1.rcgu.o:(.rodata..Lanon.0d35207db7076e77b1cea5e35c80739e.9)
    ccb0     ccb0        8     4         /home/ferrite/rusty1968/initiative/aspeed-rust/target/thumbv7em-none-eabihf/release/deps/aspeed_ddk-9593e973eaaa5586.aspeed_ddk.875e341dad0a8fe1-cgu.1.rcgu.o:(.rodata..Lanon.0d35207db7076e77b1cea5e35c80739e.10)
    ccb0     ccb0        8     1                 .Lanon.0d35207db7076e77b1cea5e35c80739e.10
    ccb8     ccb8       10     4         /home/ferrite/rusty1968/initiative/aspeed-rust/target/thumbv7em-none-eabihf/release/deps/aspeed_ddk-9593e973eaaa5586.aspeed_ddk.875e341dad0a8fe1-cgu.1.rcgu.o:(.rodata..Lanon.0d35207db7076e77b1cea5e35c80739e.11)
    ccb8     ccb8       10     1                 .Lanon.0d35207db7076e77b1cea5e35c80739e.11
    ccc8     ccc8       2b     1         /home/ferrite/rusty1968/initiative/aspeed-rust/target/thumbv7em-none-eabihf/release/deps/aspeed_ddk-9593e973eaaa5586.aspeed_ddk.875e341dad0a8fe1-cgu.1.rcgu.o:(.rodata..Lanon.0d35207db7076e77b1cea5e35c80739e.12)
    ccc8     ccc8       2b     1                 .Lanon.0d35207db7076e77b1cea5e35c80739e.12
    ccf3     ccf3       4f     1         /home/ferrite/rusty1968/initiative/aspeed-rust/target/thumbv7em-none-eabihf/release/deps/aspeed_ddk-9593e973eaaa5586.aspeed_ddk.875e341dad0a8fe1-cgu.1.rcgu.o:(.rodata..Lanon.0d35207db7076e77b1cea5e35c80739e.13)
    cd44     cd44       10     4         /home/ferrite/rusty1968/initiative/aspeed-rust/target/thumbv7em-none-eabihf/release/deps/aspeed_ddk-9593e973eaaa5586.aspeed_ddk.875e341dad0a8fe1-cgu.1.rcgu.o:(.rodata..Lanon.0d35207db7076e77b1cea5e35c80739e.14)
    cd44     cd44       10     1                 .Lanon.0d35207db7076e77b1cea5e35c80739e.14
    cd54     cd54       1e     1         /home/ferrite/rusty1968/initiative/aspeed-rust/target/thumbv7em-none-eabihf/release/deps/aspeed_ddk-9593e973eaaa5586.aspeed_ddk.875e341dad0a8fe1-cgu.1.rcgu.o:(.rodata..Lanon.0d35207db7076e77b1cea5e35c80739e.15)
    cd74     cd74        8     4         /home/ferrite/rusty1968/initiative/aspeed-rust/target/thumbv7em-none-eabihf/release/deps/aspeed_ddk-9593e973eaaa5586.aspeed_ddk.875e341dad0a8fe1-cgu.1.rcgu.o:(.rodata..Lanon.0d35207db7076e77b1cea5e35c80739e.16)
    cd74     cd74        8     1                 .Lanon.0d35207db7076e77b1cea5e35c80739e.16
    cd7c     cd7c       10     4         /home/ferrite/rusty1968/initiative/aspeed-rust/target/thumbv7em-none-eabihf/release/deps/aspeed_ddk-9593e973eaaa5586.aspeed_ddk.875e341dad0a8fe1-cgu.1.rcgu.o:(.rodata..Lanon.0d35207db7076e77b1cea5e35c80739e.17)
    cd7c     cd7c       10     1                 .Lanon.0d35207db7076e77b1cea5e35c80739e.17
    cd8c     cd8c       10     4         /home/ferrite/rusty1968/initiative/aspeed-rust/target/thumbv7em-none-eabihf/release/deps/aspeed_ddk-9593e973eaaa5586.aspeed_ddk.875e341dad0a8fe1-cgu.1.rcgu.o:(.rodata..Lanon.0d35207db7076e77b1cea5e35c80739e.19)
    cd8c     cd8c       10     1                 .Lanon.0d35207db7076e77b1cea5e35c80739e.19
    cd9c     cd9c        c     1         /home/ferrite/rusty1968/initiative/aspeed-rust/target/thumbv7em-none-eabihf/release/deps/aspeed_ddk-9593e973eaaa5586.aspeed_ddk.875e341dad0a8fe1-cgu.1.rcgu.o:(.rodata..Lanon.0d35207db7076e77b1cea5e35c80739e.20)
    cda8     cda8        e     1         /home/ferrite/rusty1968/initiative/aspeed-rust/target/thumbv7em-none-eabihf/release/deps/aspeed_ddk-9593e973eaaa5586.aspeed_ddk.875e341dad0a8fe1-cgu.1.rcgu.o:(.rodata..Lanon.0d35207db7076e77b1cea5e35c80739e.21)
    cdb8     cdb8       10     4         /home/ferrite/rusty1968/initiative/aspeed-rust/target/thumbv7em-none-eabihf/release/deps/aspeed_ddk-9593e973eaaa5586.aspeed_ddk.875e341dad0a8fe1-cgu.1.rcgu.o:(.rodata..Lanon.0d35207db7076e77b1cea5e35c80739e.22)
    cdb8     cdb8       10     1                 .Lanon.0d35207db7076e77b1cea5e35c80739e.22
    cdc8     cdc8       23     1         /home/ferrite/rusty1968/initiative/aspeed-rust/target/thumbv7em-none-eabihf/release/deps/aspeed_ddk-9593e973eaaa5586.aspeed_ddk.875e341dad0a8fe1-cgu.1.rcgu.o:(.rodata..Lanon.0d35207db7076e77b1cea5e35c80739e.23)
    cdeb     cdeb        e     1         /home/ferrite/rusty1968/initiative/aspeed-rust/target/thumbv7em-none-eabihf/release/deps/aspeed_ddk-9593e973eaaa5586.aspeed_ddk.875e341dad0a8fe1-cgu.1.rcgu.o:(.rodata..Lanon.0d35207db7076e77b1cea5e35c80739e.24)
    cdf9     cdf9        1     1         /home/ferrite/rusty1968/initiative/aspeed-rust/target/thumbv7em-none-eabihf/release/deps/aspeed_ddk-9593e973eaaa5586.aspeed_ddk.875e341dad0a8fe1-cgu.1.rcgu.o:(.rodata..Lanon.0d35207db7076e77b1cea5e35c80739e.25)
    cdfc     cdfc       20     4         /home/ferrite/rusty1968/initiative/aspeed-rust/target/thumbv7em-none-eabihf/release/deps/aspeed_ddk-9593e973eaaa5586.aspeed_ddk.875e341dad0a8fe1-cgu.1.rcgu.o:(.rodata..Lanon.0d35207db7076e77b1cea5e35c80739e.26)
    cdfc     cdfc       20     1                 .Lanon.0d35207db7076e77b1cea5e35c80739e.26
    ce1c     ce1c       26     1         /home/ferrite/rusty1968/initiative/aspeed-rust/target/thumbv7em-none-eabihf/release/deps/aspeed_ddk-9593e973eaaa5586.aspeed_ddk.875e341dad0a8fe1-cgu.1.rcgu.o:(.rodata..Lanon.0d35207db7076e77b1cea5e35c80739e.28)
    ce42     ce42        6     1         /home/ferrite/rusty1968/initiative/aspeed-rust/target/thumbv7em-none-eabihf/release/deps/aspeed_ddk-9593e973eaaa5586.aspeed_ddk.875e341dad0a8fe1-cgu.1.rcgu.o:(.rodata..Lanon.0d35207db7076e77b1cea5e35c80739e.29)
    ce48     ce48       20     4         /home/ferrite/rusty1968/initiative/aspeed-rust/target/thumbv7em-none-eabihf/release/deps/aspeed_ddk-9593e973eaaa5586.aspeed_ddk.875e341dad0a8fe1-cgu.1.rcgu.o:(.rodata..Lanon.0d35207db7076e77b1cea5e35c80739e.30)
    ce48     ce48       20     1                 .Lanon.0d35207db7076e77b1cea5e35c80739e.30
    ce68     ce68       10     4         /home/ferrite/rusty1968/initiative/aspeed-rust/target/thumbv7em-none-eabihf/release/deps/aspeed_ddk-9593e973eaaa5586.aspeed_ddk.875e341dad0a8fe1-cgu.1.rcgu.o:(.rodata..Lanon.0d35207db7076e77b1cea5e35c80739e.31)
    ce68     ce68       10     1                 .Lanon.0d35207db7076e77b1cea5e35c80739e.31
    ce78     ce78       10     4         /home/ferrite/rusty1968/initiative/aspeed-rust/target/thumbv7em-none-eabihf/release/deps/aspeed_ddk-9593e973eaaa5586.aspeed_ddk.875e341dad0a8fe1-cgu.1.rcgu.o:(.rodata..Lanon.0d35207db7076e77b1cea5e35c80739e.32)
    ce78     ce78       10     1                 .Lanon.0d35207db7076e77b1cea5e35c80739e.32
    ce88     ce88        e     1         /home/ferrite/rusty1968/initiative/aspeed-rust/target/thumbv7em-none-eabihf/release/deps/aspeed_ddk-9593e973eaaa5586.aspeed_ddk.875e341dad0a8fe1-cgu.1.rcgu.o:(.rodata..Lanon.0d35207db7076e77b1cea5e35c80739e.33)
    ce98     ce98       10     4         /home/ferrite/rusty1968/initiative/aspeed-rust/target/thumbv7em-none-eabihf/release/deps/aspeed_ddk-9593e973eaaa5586.aspeed_ddk.875e341dad0a8fe1-cgu.1.rcgu.o:(.rodata..Lanon.0d35207db7076e77b1cea5e35c80739e.34)
    ce98     ce98       10     1                 .Lanon.0d35207db7076e77b1cea5e35c80739e.34
    cea8     cea8        e     1         /home/ferrite/rusty1968/initiative/aspeed-rust/target/thumbv7em-none-eabihf/release/deps/aspeed_ddk-9593e973eaaa5586.aspeed_ddk.875e341dad0a8fe1-cgu.1.rcgu.o:(.rodata..Lanon.0d35207db7076e77b1cea5e35c80739e.35)
    ceb6     ceb6       15     1         /home/ferrite/rusty1968/initiative/aspeed-rust/target/thumbv7em-none-eabihf/release/deps/aspeed_ddk-9593e973eaaa5586.aspeed_ddk.875e341dad0a8fe1-cgu.1.rcgu.o:(.rodata..Lanon.0d35207db7076e77b1cea5e35c80739e.36)
    cecc     cecc       20     4         /home/ferrite/rusty1968/initiative/aspeed-rust/target/thumbv7em-none-eabihf/release/deps/aspeed_ddk-9593e973eaaa5586.aspeed_ddk.875e341dad0a8fe1-cgu.1.rcgu.o:(.rodata..Lanon.0d35207db7076e77b1cea5e35c80739e.37)
    cecc     cecc       20     1                 .Lanon.0d35207db7076e77b1cea5e35c80739e.37
    ceec     ceec       10     4         /home/ferrite/rusty1968/initiative/aspeed-rust/target/thumbv7em-none-eabihf/release/deps/aspeed_ddk-9593e973eaaa5586.aspeed_ddk.875e341dad0a8fe1-cgu.1.rcgu.o:(.rodata..Lanon.0d35207db7076e77b1cea5e35c80739e.38)
    ceec     ceec       10     1                 .Lanon.0d35207db7076e77b1cea5e35c80739e.38
    cefc     cefc       23     1         /home/ferrite/rusty1968/initiative/aspeed-rust/target/thumbv7em-none-eabihf/release/deps/aspeed_ddk-9593e973eaaa5586.aspeed_ddk.875e341dad0a8fe1-cgu.1.rcgu.o:(.rodata..Lanon.0d35207db7076e77b1cea5e35c80739e.39)
    cf20     cf20        8     4         /home/ferrite/rusty1968/initiative/aspeed-rust/target/thumbv7em-none-eabihf/release/deps/aspeed_ddk-9593e973eaaa5586.aspeed_ddk.875e341dad0a8fe1-cgu.1.rcgu.o:(.rodata..Lanon.0d35207db7076e77b1cea5e35c80739e.40)
    cf20     cf20        8     1                 .Lanon.0d35207db7076e77b1cea5e35c80739e.40
    cf28     cf28       10     4         /home/ferrite/rusty1968/initiative/aspeed-rust/target/thumbv7em-none-eabihf/release/deps/aspeed_ddk-9593e973eaaa5586.aspeed_ddk.875e341dad0a8fe1-cgu.1.rcgu.o:(.rodata..Lanon.0d35207db7076e77b1cea5e35c80739e.41)
    cf28     cf28       10     1                 .Lanon.0d35207db7076e77b1cea5e35c80739e.41
    cf38     cf38       10     4         /home/ferrite/rusty1968/initiative/aspeed-rust/target/thumbv7em-none-eabihf/release/deps/aspeed_ddk-9593e973eaaa5586.aspeed_ddk.875e341dad0a8fe1-cgu.1.rcgu.o:(.rodata..Lanon.0d35207db7076e77b1cea5e35c80739e.43)
    cf38     cf38       10     1                 .Lanon.0d35207db7076e77b1cea5e35c80739e.43
    cf48     cf48       10     4         /home/ferrite/rusty1968/initiative/aspeed-rust/target/thumbv7em-none-eabihf/release/deps/aspeed_ddk-9593e973eaaa5586.aspeed_ddk.875e341dad0a8fe1-cgu.1.rcgu.o:(.rodata..Lanon.0d35207db7076e77b1cea5e35c80739e.46)
    cf48     cf48       10     1                 .Lanon.0d35207db7076e77b1cea5e35c80739e.46
    cf58     cf58       11     1         /home/ferrite/rusty1968/initiative/aspeed-rust/target/thumbv7em-none-eabihf/release/deps/aspeed_ddk-9593e973eaaa5586.aspeed_ddk.875e341dad0a8fe1-cgu.1.rcgu.o:(.rodata..Lanon.0d35207db7076e77b1cea5e35c80739e.47)
    cf6c     cf6c       18     4         /home/ferrite/rusty1968/initiative/aspeed-rust/target/thumbv7em-none-eabihf/release/deps/aspeed_ddk-9593e973eaaa5586.aspeed_ddk.875e341dad0a8fe1-cgu.1.rcgu.o:(.rodata..Lanon.0d35207db7076e77b1cea5e35c80739e.48)
    cf6c     cf6c       18     1                 .Lanon.0d35207db7076e77b1cea5e35c80739e.48
    cf84     cf84       1c     1         /home/ferrite/rusty1968/initiative/aspeed-rust/target/thumbv7em-none-eabihf/release/deps/aspeed_ddk-9593e973eaaa5586.aspeed_ddk.875e341dad0a8fe1-cgu.1.rcgu.o:(.rodata..Lanon.0d35207db7076e77b1cea5e35c80739e.50)
    cfa0     cfa0       18     4         /home/ferrite/rusty1968/initiative/aspeed-rust/target/thumbv7em-none-eabihf/release/deps/aspeed_ddk-9593e973eaaa5586.aspeed_ddk.875e341dad0a8fe1-cgu.1.rcgu.o:(.rodata..Lanon.0d35207db7076e77b1cea5e35c80739e.51)
    cfa0     cfa0       18     1                 .Lanon.0d35207db7076e77b1cea5e35c80739e.51
    cfb8     cfb8       10     4         /home/ferrite/rusty1968/initiative/aspeed-rust/target/thumbv7em-none-eabihf/release/deps/aspeed_ddk-9593e973eaaa5586.aspeed_ddk.875e341dad0a8fe1-cgu.1.rcgu.o:(.rodata..Lanon.0d35207db7076e77b1cea5e35c80739e.52)
    cfb8     cfb8       10     1                 .Lanon.0d35207db7076e77b1cea5e35c80739e.52
    cfc8     cfc8        d     1         /home/ferrite/rusty1968/initiative/aspeed-rust/target/thumbv7em-none-eabihf/release/deps/aspeed_ddk-9593e973eaaa5586.aspeed_ddk.875e341dad0a8fe1-cgu.1.rcgu.o:(.rodata..Lanon.0d35207db7076e77b1cea5e35c80739e.53)
    cfd5     cfd5        d     1         /home/ferrite/rusty1968/initiative/aspeed-rust/target/thumbv7em-none-eabihf/release/deps/aspeed_ddk-9593e973eaaa5586.aspeed_ddk.875e341dad0a8fe1-cgu.1.rcgu.o:(.rodata..Lanon.0d35207db7076e77b1cea5e35c80739e.54)
    cfe2     cfe2       12     1         /home/ferrite/rusty1968/initiative/aspeed-rust/target/thumbv7em-none-eabihf/release/deps/aspeed_ddk-9593e973eaaa5586.aspeed_ddk.875e341dad0a8fe1-cgu.1.rcgu.o:(.rodata..Lanon.0d35207db7076e77b1cea5e35c80739e.55)
    cff4     cff4       10     4         /home/ferrite/rusty1968/initiative/aspeed-rust/target/thumbv7em-none-eabihf/release/deps/aspeed_ddk-9593e973eaaa5586.aspeed_ddk.875e341dad0a8fe1-cgu.1.rcgu.o:(.rodata..Lanon.0d35207db7076e77b1cea5e35c80739e.57)
    cff4     cff4       10     1                 .Lanon.0d35207db7076e77b1cea5e35c80739e.57
    d004     d004        5     1         /home/ferrite/rusty1968/initiative/aspeed-rust/target/thumbv7em-none-eabihf/release/deps/aspeed_ddk-9593e973eaaa5586.aspeed_ddk.875e341dad0a8fe1-cgu.1.rcgu.o:(.rodata..Lanon.0d35207db7076e77b1cea5e35c80739e.58)
    d004     d004        5     1                 .Lanon.0d35207db7076e77b1cea5e35c80739e.58
    d00c     d00c       10     4         /home/ferrite/rusty1968/initiative/aspeed-rust/target/thumbv7em-none-eabihf/release/deps/aspeed_ddk-9593e973eaaa5586.aspeed_ddk.875e341dad0a8fe1-cgu.1.rcgu.o:(.rodata..Lanon.0d35207db7076e77b1cea5e35c80739e.59)
    d00c     d00c       10     1                 .Lanon.0d35207db7076e77b1cea5e35c80739e.59
    d01c     d01c       10     4         /home/ferrite/rusty1968/initiative/aspeed-rust/target/thumbv7em-none-eabihf/release/deps/aspeed_ddk-9593e973eaaa5586.aspeed_ddk.875e341dad0a8fe1-cgu.1.rcgu.o:(.rodata..Lanon.0d35207db7076e77b1cea5e35c80739e.60)
    d01c     d01c       10     1                 .Lanon.0d35207db7076e77b1cea5e35c80739e.60
    d02c     d02c       10     4         /home/ferrite/rusty1968/initiative/aspeed-rust/target/thumbv7em-none-eabihf/release/deps/aspeed_ddk-9593e973eaaa5586.aspeed_ddk.875e341dad0a8fe1-cgu.1.rcgu.o:(.rodata..Lanon.0d35207db7076e77b1cea5e35c80739e.61)
    d02c     d02c       10     1                 .Lanon.0d35207db7076e77b1cea5e35c80739e.61
    d03c     d03c       10     4         /home/ferrite/rusty1968/initiative/aspeed-rust/target/thumbv7em-none-eabihf/release/deps/aspeed_ddk-9593e973eaaa5586.aspeed_ddk.875e341dad0a8fe1-cgu.1.rcgu.o:(.rodata..Lanon.0d35207db7076e77b1cea5e35c80739e.62)
    d03c     d03c       10     1                 .Lanon.0d35207db7076e77b1cea5e35c80739e.62
    d04c     d04c       10     4         /home/ferrite/rusty1968/initiative/aspeed-rust/target/thumbv7em-none-eabihf/release/deps/aspeed_ddk-9593e973eaaa5586.aspeed_ddk.875e341dad0a8fe1-cgu.1.rcgu.o:(.rodata..Lanon.0d35207db7076e77b1cea5e35c80739e.64)
    d04c     d04c       10     1                 .Lanon.0d35207db7076e77b1cea5e35c80739e.64
    d05c     d05c       10     4         /home/ferrite/rusty1968/initiative/aspeed-rust/target/thumbv7em-none-eabihf/release/deps/aspeed_ddk-9593e973eaaa5586.aspeed_ddk.875e341dad0a8fe1-cgu.1.rcgu.o:(.rodata..Lanon.0d35207db7076e77b1cea5e35c80739e.65)
    d05c     d05c       10     1                 .Lanon.0d35207db7076e77b1cea5e35c80739e.65
    d06c     d06c       10     4         /home/ferrite/rusty1968/initiative/aspeed-rust/target/thumbv7em-none-eabihf/release/deps/aspeed_ddk-9593e973eaaa5586.aspeed_ddk.875e341dad0a8fe1-cgu.1.rcgu.o:(.rodata..Lanon.0d35207db7076e77b1cea5e35c80739e.66)
    d06c     d06c       10     1                 .Lanon.0d35207db7076e77b1cea5e35c80739e.66
    d07c     d07c        c     4         /home/ferrite/rusty1968/initiative/aspeed-rust/target/thumbv7em-none-eabihf/release/deps/aspeed_ddk-9593e973eaaa5586.aspeed_ddk.875e341dad0a8fe1-cgu.1.rcgu.o:(.rodata..Lswitch.table._ZN68_$LT$aspeed_ddk..rsa..RsaDriverError$u20$as$u20$core..fmt..Debug$GT$3fmt17h3deea5e68bbe096fE)
    d07c     d07c        c     1                 .Lswitch.table._ZN68_$LT$aspeed_ddk..rsa..RsaDriverError$u20$as$u20$core..fmt..Debug$GT$3fmt17h3deea5e68bbe096fE
    d088     d088        c     4         /home/ferrite/rusty1968/initiative/aspeed-rust/target/thumbv7em-none-eabihf/release/deps/aspeed_ddk-9593e973eaaa5586.aspeed_ddk.875e341dad0a8fe1-cgu.1.rcgu.o:(.rodata..Lswitch.table._ZN68_$LT$aspeed_ddk..rsa..RsaDriverError$u20$as$u20$core..fmt..Debug$GT$3fmt17h3deea5e68bbe096fE.14)
    d088     d088        c     1                 .Lswitch.table._ZN68_$LT$aspeed_ddk..rsa..RsaDriverError$u20$as$u20$core..fmt..Debug$GT$3fmt17h3deea5e68bbe096fE.14
    d094     d094        7     1         /home/ferrite/rusty1968/initiative/aspeed-rust/target/thumbv7em-none-eabihf/release/deps/aspeed_ddk-9593e973eaaa5586.aspeed_ddk.875e341dad0a8fe1-cgu.2.rcgu.o:(.rodata..Lanon.571dfd0a2175a5ca4977e238712e64af.0)
    d09b     d09b        6     1         /home/ferrite/rusty1968/initiative/aspeed-rust/target/thumbv7em-none-eabihf/release/deps/aspeed_ddk-9593e973eaaa5586.aspeed_ddk.875e341dad0a8fe1-cgu.2.rcgu.o:(.rodata..Lanon.571dfd0a2175a5ca4977e238712e64af.1)
    d0a1     d0a1        7     1         /home/ferrite/rusty1968/initiative/aspeed-rust/target/thumbv7em-none-eabihf/release/deps/aspeed_ddk-9593e973eaaa5586.aspeed_ddk.875e341dad0a8fe1-cgu.2.rcgu.o:(.rodata..Lanon.571dfd0a2175a5ca4977e238712e64af.2)
    d0a8     d0a8        5     1         /home/ferrite/rusty1968/initiative/aspeed-rust/target/thumbv7em-none-eabihf/release/deps/aspeed_ddk-9593e973eaaa5586.aspeed_ddk.875e341dad0a8fe1-cgu.2.rcgu.o:(.rodata..Lanon.571dfd0a2175a5ca4977e238712e64af.3)
    d0ad     d0ad        7     1         /home/ferrite/rusty1968/initiative/aspeed-rust/target/thumbv7em-none-eabihf/release/deps/aspeed_ddk-9593e973eaaa5586.aspeed_ddk.875e341dad0a8fe1-cgu.2.rcgu.o:(.rodata..Lanon.571dfd0a2175a5ca4977e238712e64af.4)
    d0b4     d0b4       10     4         /home/ferrite/rusty1968/initiative/aspeed-rust/target/thumbv7em-none-eabihf/release/deps/aspeed_ddk-9593e973eaaa5586.aspeed_ddk.875e341dad0a8fe1-cgu.2.rcgu.o:(.rodata..Lanon.571dfd0a2175a5ca4977e238712e64af.6)
    d0b4     d0b4       10     1                 .Lanon.571dfd0a2175a5ca4977e238712e64af.6
    d0c4     d0c4        5     1         /home/ferrite/rusty1968/initiative/aspeed-rust/target/thumbv7em-none-eabihf/release/deps/aspeed_ddk-9593e973eaaa5586.aspeed_ddk.875e341dad0a8fe1-cgu.2.rcgu.o:(.rodata..Lanon.571dfd0a2175a5ca4977e238712e64af.7)
    d0c4     d0c4        5     1                 .Lanon.571dfd0a2175a5ca4977e238712e64af.7
    d0c9     d0c9        d     1         /home/ferrite/rusty1968/initiative/aspeed-rust/target/thumbv7em-none-eabihf/release/deps/aspeed_ddk-9593e973eaaa5586.aspeed_ddk.875e341dad0a8fe1-cgu.2.rcgu.o:(.rodata..Lanon.571dfd0a2175a5ca4977e238712e64af.8)
    d0c9     d0c9        d     1                 .Lanon.571dfd0a2175a5ca4977e238712e64af.8
    d0d6     d0d6        a     1         /home/ferrite/rusty1968/initiative/aspeed-rust/target/thumbv7em-none-eabihf/release/deps/aspeed_ddk-9593e973eaaa5586.aspeed_ddk.875e341dad0a8fe1-cgu.2.rcgu.o:(.rodata..Lanon.571dfd0a2175a5ca4977e238712e64af.9)
    d0d6     d0d6        a     1                 .Lanon.571dfd0a2175a5ca4977e238712e64af.9
    d0e0     d0e0        a     1         /home/ferrite/rusty1968/initiative/aspeed-rust/target/thumbv7em-none-eabihf/release/deps/aspeed_ddk-9593e973eaaa5586.aspeed_ddk.875e341dad0a8fe1-cgu.2.rcgu.o:(.rodata..Lanon.571dfd0a2175a5ca4977e238712e64af.10)
    d0e0     d0e0        a     1                 .Lanon.571dfd0a2175a5ca4977e238712e64af.10
    d0ec     d0ec       10     4         /home/ferrite/rusty1968/initiative/aspeed-rust/target/thumbv7em-none-eabihf/release/deps/aspeed_ddk-9593e973eaaa5586.aspeed_ddk.875e341dad0a8fe1-cgu.2.rcgu.o:(.rodata..Lanon.571dfd0a2175a5ca4977e238712e64af.11)
    d0ec     d0ec       10     1                 .Lanon.571dfd0a2175a5ca4977e238712e64af.11
    d0fc     d0fc       2b     1         /home/ferrite/rusty1968/initiative/aspeed-rust/target/thumbv7em-none-eabihf/release/deps/aspeed_ddk-9593e973eaaa5586.aspeed_ddk.875e341dad0a8fe1-cgu.2.rcgu.o:(.rodata..Lanon.571dfd0a2175a5ca4977e238712e64af.12)
    d0fc     d0fc       2b     1                 .Lanon.571dfd0a2175a5ca4977e238712e64af.12
    d127     d127        b     1         /home/ferrite/rusty1968/initiative/aspeed-rust/target/thumbv7em-none-eabihf/release/deps/aspeed_ddk-9593e973eaaa5586.aspeed_ddk.875e341dad0a8fe1-cgu.2.rcgu.o:(.rodata..Lanon.571dfd0a2175a5ca4977e238712e64af.13)
    d134     d134       10     4         /home/ferrite/rusty1968/initiative/aspeed-rust/target/thumbv7em-none-eabihf/release/deps/aspeed_ddk-9593e973eaaa5586.aspeed_ddk.875e341dad0a8fe1-cgu.2.rcgu.o:(.rodata..Lanon.571dfd0a2175a5ca4977e238712e64af.14)
    d134     d134       10     1                 .Lanon.571dfd0a2175a5ca4977e238712e64af.14
    d144     d144       10     4         /home/ferrite/rusty1968/initiative/aspeed-rust/target/thumbv7em-none-eabihf/release/deps/aspeed_ddk-9593e973eaaa5586.aspeed_ddk.875e341dad0a8fe1-cgu.2.rcgu.o:(.rodata..Lanon.571dfd0a2175a5ca4977e238712e64af.15)
    d144     d144       10     1                 .Lanon.571dfd0a2175a5ca4977e238712e64af.15
    d154     d154       10     4         /home/ferrite/rusty1968/initiative/aspeed-rust/target/thumbv7em-none-eabihf/release/deps/aspeed_ddk-9593e973eaaa5586.aspeed_ddk.875e341dad0a8fe1-cgu.2.rcgu.o:(.rodata..Lanon.571dfd0a2175a5ca4977e238712e64af.16)
    d154     d154       10     1                 .Lanon.571dfd0a2175a5ca4977e238712e64af.16
    d164     d164       26     1         /home/ferrite/rusty1968/initiative/aspeed-rust/target/thumbv7em-none-eabihf/release/deps/aspeed_ddk-9593e973eaaa5586.aspeed_ddk.875e341dad0a8fe1-cgu.2.rcgu.o:(.rodata..Lanon.571dfd0a2175a5ca4977e238712e64af.17)
    d18c     d18c        8     4         /home/ferrite/rusty1968/initiative/aspeed-rust/target/thumbv7em-none-eabihf/release/deps/aspeed_ddk-9593e973eaaa5586.aspeed_ddk.875e341dad0a8fe1-cgu.2.rcgu.o:(.rodata..Lanon.571dfd0a2175a5ca4977e238712e64af.18)
    d18c     d18c        8     1                 .Lanon.571dfd0a2175a5ca4977e238712e64af.18
    d194     d194       1c     1         /home/ferrite/rusty1968/initiative/aspeed-rust/target/thumbv7em-none-eabihf/release/deps/aspeed_ddk-9593e973eaaa5586.aspeed_ddk.875e341dad0a8fe1-cgu.2.rcgu.o:(.rodata..Lanon.571dfd0a2175a5ca4977e238712e64af.19)
    d1b0     d1b0        8     4         /home/ferrite/rusty1968/initiative/aspeed-rust/target/thumbv7em-none-eabihf/release/deps/aspeed_ddk-9593e973eaaa5586.aspeed_ddk.875e341dad0a8fe1-cgu.2.rcgu.o:(.rodata..Lanon.571dfd0a2175a5ca4977e238712e64af.20)
    d1b0     d1b0        8     1                 .Lanon.571dfd0a2175a5ca4977e238712e64af.20
    d1b8     d1b8       1c     1         /home/ferrite/rusty1968/initiative/aspeed-rust/target/thumbv7em-none-eabihf/release/deps/aspeed_ddk-9593e973eaaa5586.aspeed_ddk.875e341dad0a8fe1-cgu.2.rcgu.o:(.rodata..Lanon.571dfd0a2175a5ca4977e238712e64af.21)
    d1d4     d1d4        8     4         /home/ferrite/rusty1968/initiative/aspeed-rust/target/thumbv7em-none-eabihf/release/deps/aspeed_ddk-9593e973eaaa5586.aspeed_ddk.875e341dad0a8fe1-cgu.2.rcgu.o:(.rodata..Lanon.571dfd0a2175a5ca4977e238712e64af.22)
    d1d4     d1d4        8     1                 .Lanon.571dfd0a2175a5ca4977e238712e64af.22
    d1dc     d1dc       1c     1         /home/ferrite/rusty1968/initiative/aspeed-rust/target/thumbv7em-none-eabihf/release/deps/aspeed_ddk-9593e973eaaa5586.aspeed_ddk.875e341dad0a8fe1-cgu.2.rcgu.o:(.rodata..Lanon.571dfd0a2175a5ca4977e238712e64af.23)
    d1f8     d1f8        8     4         /home/ferrite/rusty1968/initiative/aspeed-rust/target/thumbv7em-none-eabihf/release/deps/aspeed_ddk-9593e973eaaa5586.aspeed_ddk.875e341dad0a8fe1-cgu.2.rcgu.o:(.rodata..Lanon.571dfd0a2175a5ca4977e238712e64af.24)
    d1f8     d1f8        8     1                 .Lanon.571dfd0a2175a5ca4977e238712e64af.24
    d200     d200       28     1         /home/ferrite/rusty1968/initiative/aspeed-rust/target/thumbv7em-none-eabihf/release/deps/aspeed_ddk-9593e973eaaa5586.aspeed_ddk.875e341dad0a8fe1-cgu.2.rcgu.o:(.rodata..Lanon.571dfd0a2175a5ca4977e238712e64af.25)
    d228     d228        8     4         /home/ferrite/rusty1968/initiative/aspeed-rust/target/thumbv7em-none-eabihf/release/deps/aspeed_ddk-9593e973eaaa5586.aspeed_ddk.875e341dad0a8fe1-cgu.2.rcgu.o:(.rodata..Lanon.571dfd0a2175a5ca4977e238712e64af.26)
    d228     d228        8     1                 .Lanon.571dfd0a2175a5ca4977e238712e64af.26
    d230     d230       10     4         /home/ferrite/rusty1968/initiative/aspeed-rust/target/thumbv7em-none-eabihf/release/deps/aspeed_ddk-9593e973eaaa5586.aspeed_ddk.875e341dad0a8fe1-cgu.2.rcgu.o:(.rodata..Lanon.571dfd0a2175a5ca4977e238712e64af.27)
    d230     d230       10     1                 .Lanon.571dfd0a2175a5ca4977e238712e64af.27
    d240     d240       10     4         /home/ferrite/rusty1968/initiative/aspeed-rust/target/thumbv7em-none-eabihf/release/deps/aspeed_ddk-9593e973eaaa5586.aspeed_ddk.875e341dad0a8fe1-cgu.2.rcgu.o:(.rodata..Lanon.571dfd0a2175a5ca4977e238712e64af.28)
    d240     d240       10     1                 .Lanon.571dfd0a2175a5ca4977e238712e64af.28
    d250     d250       10     4         /home/ferrite/rusty1968/initiative/aspeed-rust/target/thumbv7em-none-eabihf/release/deps/aspeed_ddk-9593e973eaaa5586.aspeed_ddk.875e341dad0a8fe1-cgu.2.rcgu.o:(.rodata..Lanon.571dfd0a2175a5ca4977e238712e64af.29)
    d250     d250       10     1                 .Lanon.571dfd0a2175a5ca4977e238712e64af.29
    d260     d260       10     4         /home/ferrite/rusty1968/initiative/aspeed-rust/target/thumbv7em-none-eabihf/release/deps/aspeed_ddk-9593e973eaaa5586.aspeed_ddk.875e341dad0a8fe1-cgu.2.rcgu.o:(.rodata..Lanon.571dfd0a2175a5ca4977e238712e64af.30)
    d260     d260       10     1                 .Lanon.571dfd0a2175a5ca4977e238712e64af.30
    d270     d270       10     4         /home/ferrite/rusty1968/initiative/aspeed-rust/target/thumbv7em-none-eabihf/release/deps/aspeed_ddk-9593e973eaaa5586.aspeed_ddk.875e341dad0a8fe1-cgu.2.rcgu.o:(.rodata..Lanon.571dfd0a2175a5ca4977e238712e64af.31)
    d270     d270       10     1                 .Lanon.571dfd0a2175a5ca4977e238712e64af.31
    d280     d280       10     4         /home/ferrite/rusty1968/initiative/aspeed-rust/target/thumbv7em-none-eabihf/release/deps/aspeed_ddk-9593e973eaaa5586.aspeed_ddk.875e341dad0a8fe1-cgu.2.rcgu.o:(.rodata..Lanon.571dfd0a2175a5ca4977e238712e64af.32)
    d280     d280       10     1                 .Lanon.571dfd0a2175a5ca4977e238712e64af.32
    d290     d290       24     1         /home/ferrite/rusty1968/initiative/aspeed-rust/target/thumbv7em-none-eabihf/release/deps/aspeed_ddk-9593e973eaaa5586.aspeed_ddk.875e341dad0a8fe1-cgu.2.rcgu.o:(.rodata..Lanon.571dfd0a2175a5ca4977e238712e64af.33)
    d2b4     d2b4       10     4         /home/ferrite/rusty1968/initiative/aspeed-rust/target/thumbv7em-none-eabihf/release/deps/aspeed_ddk-9593e973eaaa5586.aspeed_ddk.875e341dad0a8fe1-cgu.2.rcgu.o:(.rodata..Lanon.571dfd0a2175a5ca4977e238712e64af.34)
    d2b4     d2b4       10     1                 .Lanon.571dfd0a2175a5ca4977e238712e64af.34
    d2c4     d2c4        a     1         /home/ferrite/rusty1968/initiative/aspeed-rust/target/thumbv7em-none-eabihf/release/deps/aspeed_ddk-9593e973eaaa5586.aspeed_ddk.875e341dad0a8fe1-cgu.2.rcgu.o:(.rodata..Lanon.571dfd0a2175a5ca4977e238712e64af.35)
    d2d0     d2d0        8     4         /home/ferrite/rusty1968/initiative/aspeed-rust/target/thumbv7em-none-eabihf/release/deps/aspeed_ddk-9593e973eaaa5586.aspeed_ddk.875e341dad0a8fe1-cgu.2.rcgu.o:(.rodata..Lanon.571dfd0a2175a5ca4977e238712e64af.36)
    d2d0     d2d0        8     1                 .Lanon.571dfd0a2175a5ca4977e238712e64af.36
    d2d8     d2d8        1     1         /home/ferrite/rusty1968/initiative/aspeed-rust/target/thumbv7em-none-eabihf/release/deps/aspeed_ddk-9593e973eaaa5586.aspeed_ddk.875e341dad0a8fe1-cgu.2.rcgu.o:(.rodata..Lanon.571dfd0a2175a5ca4977e238712e64af.37)
    d2dc     d2dc        8     4         /home/ferrite/rusty1968/initiative/aspeed-rust/target/thumbv7em-none-eabihf/release/deps/aspeed_ddk-9593e973eaaa5586.aspeed_ddk.875e341dad0a8fe1-cgu.2.rcgu.o:(.rodata..Lanon.571dfd0a2175a5ca4977e238712e64af.38)
    d2dc     d2dc        8     1                 .Lanon.571dfd0a2175a5ca4977e238712e64af.38
    d2e4     d2e4        a     1         /home/ferrite/rusty1968/initiative/aspeed-rust/target/thumbv7em-none-eabihf/release/deps/aspeed_ddk-9593e973eaaa5586.aspeed_ddk.875e341dad0a8fe1-cgu.2.rcgu.o:(.rodata..Lanon.571dfd0a2175a5ca4977e238712e64af.39)
    d2f0     d2f0        8     4         /home/ferrite/rusty1968/initiative/aspeed-rust/target/thumbv7em-none-eabihf/release/deps/aspeed_ddk-9593e973eaaa5586.aspeed_ddk.875e341dad0a8fe1-cgu.2.rcgu.o:(.rodata..Lanon.571dfd0a2175a5ca4977e238712e64af.40)
    d2f0     d2f0        8     1                 .Lanon.571dfd0a2175a5ca4977e238712e64af.40
    d2f8     d2f8       10     4         /home/ferrite/rusty1968/initiative/aspeed-rust/target/thumbv7em-none-eabihf/release/deps/aspeed_ddk-9593e973eaaa5586.aspeed_ddk.875e341dad0a8fe1-cgu.2.rcgu.o:(.rodata..Lanon.571dfd0a2175a5ca4977e238712e64af.41)
    d2f8     d2f8       10     1                 .Lanon.571dfd0a2175a5ca4977e238712e64af.41
    d308     d308       10     4         /home/ferrite/rusty1968/initiative/aspeed-rust/target/thumbv7em-none-eabihf/release/deps/aspeed_ddk-9593e973eaaa5586.aspeed_ddk.875e341dad0a8fe1-cgu.2.rcgu.o:(.rodata..Lanon.571dfd0a2175a5ca4977e238712e64af.43)
    d308     d308       10     1                 .Lanon.571dfd0a2175a5ca4977e238712e64af.43
    d318     d318       10     4         /home/ferrite/rusty1968/initiative/aspeed-rust/target/thumbv7em-none-eabihf/release/deps/aspeed_ddk-9593e973eaaa5586.aspeed_ddk.875e341dad0a8fe1-cgu.2.rcgu.o:(.rodata..Lanon.571dfd0a2175a5ca4977e238712e64af.44)
    d318     d318       10     1                 .Lanon.571dfd0a2175a5ca4977e238712e64af.44
    d328     d328       10     4         /home/ferrite/rusty1968/initiative/aspeed-rust/target/thumbv7em-none-eabihf/release/deps/aspeed_ddk-9593e973eaaa5586.aspeed_ddk.875e341dad0a8fe1-cgu.2.rcgu.o:(.rodata..Lanon.571dfd0a2175a5ca4977e238712e64af.45)
    d328     d328       10     1                 .Lanon.571dfd0a2175a5ca4977e238712e64af.45
    d338     d338       10     4         /home/ferrite/rusty1968/initiative/aspeed-rust/target/thumbv7em-none-eabihf/release/deps/aspeed_ddk-9593e973eaaa5586.aspeed_ddk.875e341dad0a8fe1-cgu.2.rcgu.o:(.rodata..Lanon.571dfd0a2175a5ca4977e238712e64af.46)
    d338     d338       10     1                 .Lanon.571dfd0a2175a5ca4977e238712e64af.46
    d348     d348       10     4         /home/ferrite/rusty1968/initiative/aspeed-rust/target/thumbv7em-none-eabihf/release/deps/aspeed_ddk-9593e973eaaa5586.aspeed_ddk.875e341dad0a8fe1-cgu.2.rcgu.o:(.rodata..Lanon.571dfd0a2175a5ca4977e238712e64af.47)
    d348     d348       10     1                 .Lanon.571dfd0a2175a5ca4977e238712e64af.47
    d358     d358       10     4         /home/ferrite/rusty1968/initiative/aspeed-rust/target/thumbv7em-none-eabihf/release/deps/aspeed_ddk-9593e973eaaa5586.aspeed_ddk.875e341dad0a8fe1-cgu.2.rcgu.o:(.rodata..Lanon.571dfd0a2175a5ca4977e238712e64af.48)
    d358     d358       10     1                 .Lanon.571dfd0a2175a5ca4977e238712e64af.48
    d368     d368       24     1         /home/ferrite/rusty1968/initiative/aspeed-rust/target/thumbv7em-none-eabihf/release/deps/aspeed_ddk-9593e973eaaa5586.aspeed_ddk.875e341dad0a8fe1-cgu.2.rcgu.o:(.rodata..Lanon.571dfd0a2175a5ca4977e238712e64af.49)
    d38c     d38c       10     4         /home/ferrite/rusty1968/initiative/aspeed-rust/target/thumbv7em-none-eabihf/release/deps/aspeed_ddk-9593e973eaaa5586.aspeed_ddk.875e341dad0a8fe1-cgu.2.rcgu.o:(.rodata..Lanon.571dfd0a2175a5ca4977e238712e64af.50)
    d38c     d38c       10     1                 .Lanon.571dfd0a2175a5ca4977e238712e64af.50
    d39c     d39c       10     4         /home/ferrite/rusty1968/initiative/aspeed-rust/target/thumbv7em-none-eabihf/release/deps/aspeed_ddk-9593e973eaaa5586.aspeed_ddk.875e341dad0a8fe1-cgu.2.rcgu.o:(.rodata..Lanon.571dfd0a2175a5ca4977e238712e64af.51)
    d39c     d39c       10     1                 .Lanon.571dfd0a2175a5ca4977e238712e64af.51
    d3ac     d3ac        3     1         /home/ferrite/rusty1968/initiative/aspeed-rust/target/thumbv7em-none-eabihf/release/deps/aspeed_ddk-9593e973eaaa5586.aspeed_ddk.875e341dad0a8fe1-cgu.2.rcgu.o:(.rodata..Lanon.571dfd0a2175a5ca4977e238712e64af.52)
    d3ac     d3ac        3     1                 .Lanon.571dfd0a2175a5ca4977e238712e64af.52
    d3af     d3af       19     1         /home/ferrite/rusty1968/initiative/aspeed-rust/target/thumbv7em-none-eabihf/release/deps/aspeed_ddk-9593e973eaaa5586.aspeed_ddk.875e341dad0a8fe1-cgu.2.rcgu.o:(.rodata..Lanon.571dfd0a2175a5ca4977e238712e64af.53)
    d3c8     d3c8       10     4         /home/ferrite/rusty1968/initiative/aspeed-rust/target/thumbv7em-none-eabihf/release/deps/aspeed_ddk-9593e973eaaa5586.aspeed_ddk.875e341dad0a8fe1-cgu.2.rcgu.o:(.rodata..Lanon.571dfd0a2175a5ca4977e238712e64af.54)
    d3c8     d3c8       10     1                 .Lanon.571dfd0a2175a5ca4977e238712e64af.54
    d3d8     d3d8        6     1         /home/ferrite/rusty1968/initiative/aspeed-rust/target/thumbv7em-none-eabihf/release/deps/aspeed_ddk-9593e973eaaa5586.aspeed_ddk.875e341dad0a8fe1-cgu.2.rcgu.o:(.rodata..Lanon.571dfd0a2175a5ca4977e238712e64af.55)
    d3d8     d3d8        6     1                 .Lanon.571dfd0a2175a5ca4977e238712e64af.55
    d3de     d3de       1d     1         /home/ferrite/rusty1968/initiative/aspeed-rust/target/thumbv7em-none-eabihf/release/deps/aspeed_ddk-9593e973eaaa5586.aspeed_ddk.875e341dad0a8fe1-cgu.2.rcgu.o:(.rodata..Lanon.571dfd0a2175a5ca4977e238712e64af.56)
    d3fc     d3fc        8     4         /home/ferrite/rusty1968/initiative/aspeed-rust/target/thumbv7em-none-eabihf/release/deps/aspeed_ddk-9593e973eaaa5586.aspeed_ddk.875e341dad0a8fe1-cgu.2.rcgu.o:(.rodata..Lanon.571dfd0a2175a5ca4977e238712e64af.57)
    d3fc     d3fc        8     1                 .Lanon.571dfd0a2175a5ca4977e238712e64af.57
    d404     d404       10     4         /home/ferrite/rusty1968/initiative/aspeed-rust/target/thumbv7em-none-eabihf/release/deps/aspeed_ddk-9593e973eaaa5586.aspeed_ddk.875e341dad0a8fe1-cgu.2.rcgu.o:(.rodata..Lanon.571dfd0a2175a5ca4977e238712e64af.58)
    d404     d404       10     1                 .Lanon.571dfd0a2175a5ca4977e238712e64af.58
    d414     d414       1d     1         /home/ferrite/rusty1968/initiative/aspeed-rust/target/thumbv7em-none-eabihf/release/deps/aspeed_ddk-9593e973eaaa5586.aspeed_ddk.875e341dad0a8fe1-cgu.2.rcgu.o:(.rodata..Lanon.571dfd0a2175a5ca4977e238712e64af.59)
    d434     d434        8     4         /home/ferrite/rusty1968/initiative/aspeed-rust/target/thumbv7em-none-eabihf/release/deps/aspeed_ddk-9593e973eaaa5586.aspeed_ddk.875e341dad0a8fe1-cgu.2.rcgu.o:(.rodata..Lanon.571dfd0a2175a5ca4977e238712e64af.60)
    d434     d434        8     1                 .Lanon.571dfd0a2175a5ca4977e238712e64af.60
    d43c     d43c       10     4         /home/ferrite/rusty1968/initiative/aspeed-rust/target/thumbv7em-none-eabihf/release/deps/aspeed_ddk-9593e973eaaa5586.aspeed_ddk.875e341dad0a8fe1-cgu.2.rcgu.o:(.rodata..Lanon.571dfd0a2175a5ca4977e238712e64af.61)
    d43c     d43c       10     1                 .Lanon.571dfd0a2175a5ca4977e238712e64af.61
    d44c     d44c       10     4         /home/ferrite/rusty1968/initiative/aspeed-rust/target/thumbv7em-none-eabihf/release/deps/aspeed_ddk-9593e973eaaa5586.aspeed_ddk.875e341dad0a8fe1-cgu.2.rcgu.o:(.rodata..Lanon.571dfd0a2175a5ca4977e238712e64af.62)
    d44c     d44c       10     1                 .Lanon.571dfd0a2175a5ca4977e238712e64af.62
    d45c     d45c       19     1         /home/ferrite/rusty1968/initiative/aspeed-rust/target/thumbv7em-none-eabihf/release/deps/aspeed_ddk-9593e973eaaa5586.aspeed_ddk.875e341dad0a8fe1-cgu.2.rcgu.o:(.rodata..Lanon.571dfd0a2175a5ca4977e238712e64af.63)
    d478     d478       10     4         /home/ferrite/rusty1968/initiative/aspeed-rust/target/thumbv7em-none-eabihf/release/deps/aspeed_ddk-9593e973eaaa5586.aspeed_ddk.875e341dad0a8fe1-cgu.2.rcgu.o:(.rodata..Lanon.571dfd0a2175a5ca4977e238712e64af.64)
    d478     d478       10     1                 .Lanon.571dfd0a2175a5ca4977e238712e64af.64
    d488     d488        6     1         /home/ferrite/rusty1968/initiative/aspeed-rust/target/thumbv7em-none-eabihf/release/deps/aspeed_ddk-9593e973eaaa5586.aspeed_ddk.875e341dad0a8fe1-cgu.2.rcgu.o:(.rodata..Lanon.571dfd0a2175a5ca4977e238712e64af.65)
    d488     d488        6     1                 .Lanon.571dfd0a2175a5ca4977e238712e64af.65
    d48e     d48e       1d     1         /home/ferrite/rusty1968/initiative/aspeed-rust/target/thumbv7em-none-eabihf/release/deps/aspeed_ddk-9593e973eaaa5586.aspeed_ddk.875e341dad0a8fe1-cgu.2.rcgu.o:(.rodata..Lanon.571dfd0a2175a5ca4977e238712e64af.66)
    d4ac     d4ac        8     4         /home/ferrite/rusty1968/initiative/aspeed-rust/target/thumbv7em-none-eabihf/release/deps/aspeed_ddk-9593e973eaaa5586.aspeed_ddk.875e341dad0a8fe1-cgu.2.rcgu.o:(.rodata..Lanon.571dfd0a2175a5ca4977e238712e64af.67)
    d4ac     d4ac        8     1                 .Lanon.571dfd0a2175a5ca4977e238712e64af.67
    d4b4     d4b4       10     4         /home/ferrite/rusty1968/initiative/aspeed-rust/target/thumbv7em-none-eabihf/release/deps/aspeed_ddk-9593e973eaaa5586.aspeed_ddk.875e341dad0a8fe1-cgu.2.rcgu.o:(.rodata..Lanon.571dfd0a2175a5ca4977e238712e64af.68)
    d4b4     d4b4       10     1                 .Lanon.571dfd0a2175a5ca4977e238712e64af.68
    d4c4     d4c4       1d     1         /home/ferrite/rusty1968/initiative/aspeed-rust/target/thumbv7em-none-eabihf/release/deps/aspeed_ddk-9593e973eaaa5586.aspeed_ddk.875e341dad0a8fe1-cgu.2.rcgu.o:(.rodata..Lanon.571dfd0a2175a5ca4977e238712e64af.69)
    d4e4     d4e4        8     4         /home/ferrite/rusty1968/initiative/aspeed-rust/target/thumbv7em-none-eabihf/release/deps/aspeed_ddk-9593e973eaaa5586.aspeed_ddk.875e341dad0a8fe1-cgu.2.rcgu.o:(.rodata..Lanon.571dfd0a2175a5ca4977e238712e64af.70)
    d4e4     d4e4        8     1                 .Lanon.571dfd0a2175a5ca4977e238712e64af.70
    d4ec     d4ec       11     1         /home/ferrite/rusty1968/initiative/aspeed-rust/target/thumbv7em-none-eabihf/release/deps/aspeed_ddk-9593e973eaaa5586.aspeed_ddk.875e341dad0a8fe1-cgu.2.rcgu.o:(.rodata..Lanon.571dfd0a2175a5ca4977e238712e64af.71)
    d4ec     d4ec       11     1                 .Lanon.571dfd0a2175a5ca4977e238712e64af.71
    d500     d500      180     4         <internal>:(.rodata.cst32)
    d680     d680        8     4         /home/ferrite/rusty1968/initiative/aspeed-rust/target/thumbv7em-none-eabihf/release/deps/aspeed_ddk-9593e973eaaa5586.aspeed_ddk.875e341dad0a8fe1-cgu.2.rcgu.o:(.rodata..Lanon.571dfd0a2175a5ca4977e238712e64af.73)
    d680     d680        8     1                 .Lanon.571dfd0a2175a5ca4977e238712e64af.73
    d688     d688       10     4         /home/ferrite/rusty1968/initiative/aspeed-rust/target/thumbv7em-none-eabihf/release/deps/aspeed_ddk-9593e973eaaa5586.aspeed_ddk.875e341dad0a8fe1-cgu.2.rcgu.o:(.rodata..Lanon.571dfd0a2175a5ca4977e238712e64af.74)
    d688     d688       10     1                 .Lanon.571dfd0a2175a5ca4977e238712e64af.74
    d698     d698       10     4         /home/ferrite/rusty1968/initiative/aspeed-rust/target/thumbv7em-none-eabihf/release/deps/aspeed_ddk-9593e973eaaa5586.aspeed_ddk.875e341dad0a8fe1-cgu.2.rcgu.o:(.rodata..Lanon.571dfd0a2175a5ca4977e238712e64af.75)
    d698     d698       10     1                 .Lanon.571dfd0a2175a5ca4977e238712e64af.75
    d6a8     d6a8       10     4         /home/ferrite/rusty1968/initiative/aspeed-rust/target/thumbv7em-none-eabihf/release/deps/aspeed_ddk-9593e973eaaa5586.aspeed_ddk.875e341dad0a8fe1-cgu.2.rcgu.o:(.rodata..Lanon.571dfd0a2175a5ca4977e238712e64af.76)
    d6a8     d6a8       10     1                 .Lanon.571dfd0a2175a5ca4977e238712e64af.76
    d6b8     d6b8        c     1         /home/ferrite/rusty1968/initiative/aspeed-rust/target/thumbv7em-none-eabihf/release/deps/aspeed_ddk-9593e973eaaa5586.aspeed_ddk.875e341dad0a8fe1-cgu.2.rcgu.o:(.rodata..Lanon.571dfd0a2175a5ca4977e238712e64af.77)
    d6b8     d6b8        c     1                 .Lanon.571dfd0a2175a5ca4977e238712e64af.77
    d6c4     d6c4        a     1         /home/ferrite/rusty1968/initiative/aspeed-rust/target/thumbv7em-none-eabihf/release/deps/aspeed_ddk-9593e973eaaa5586.aspeed_ddk.875e341dad0a8fe1-cgu.2.rcgu.o:(.rodata..Lanon.571dfd0a2175a5ca4977e238712e64af.78)
    d6c4     d6c4        a     1                 .Lanon.571dfd0a2175a5ca4977e238712e64af.78
    d6d0     d6d0        8     4         /home/ferrite/rusty1968/initiative/aspeed-rust/target/thumbv7em-none-eabihf/release/deps/aspeed_ddk-9593e973eaaa5586.aspeed_ddk.875e341dad0a8fe1-cgu.2.rcgu.o:(.rodata..Lanon.571dfd0a2175a5ca4977e238712e64af.80)
    d6d0     d6d0        8     1                 .Lanon.571dfd0a2175a5ca4977e238712e64af.80
    d6d8     d6d8       19     1         /home/ferrite/rusty1968/initiative/aspeed-rust/target/thumbv7em-none-eabihf/release/deps/aspeed_ddk-9593e973eaaa5586.aspeed_ddk.875e341dad0a8fe1-cgu.2.rcgu.o:(.rodata..Lanon.571dfd0a2175a5ca4977e238712e64af.81)
    d6f4     d6f4       10     4         /home/ferrite/rusty1968/initiative/aspeed-rust/target/thumbv7em-none-eabihf/release/deps/aspeed_ddk-9593e973eaaa5586.aspeed_ddk.875e341dad0a8fe1-cgu.2.rcgu.o:(.rodata..Lanon.571dfd0a2175a5ca4977e238712e64af.82)
    d6f4     d6f4       10     1                 .Lanon.571dfd0a2175a5ca4977e238712e64af.82
    d704     d704        6     1         /home/ferrite/rusty1968/initiative/aspeed-rust/target/thumbv7em-none-eabihf/release/deps/aspeed_ddk-9593e973eaaa5586.aspeed_ddk.875e341dad0a8fe1-cgu.2.rcgu.o:(.rodata..Lanon.571dfd0a2175a5ca4977e238712e64af.83)
    d704     d704        6     1                 .Lanon.571dfd0a2175a5ca4977e238712e64af.83
    d70a     d70a       1d     1         /home/ferrite/rusty1968/initiative/aspeed-rust/target/thumbv7em-none-eabihf/release/deps/aspeed_ddk-9593e973eaaa5586.aspeed_ddk.875e341dad0a8fe1-cgu.2.rcgu.o:(.rodata..Lanon.571dfd0a2175a5ca4977e238712e64af.84)
    d728     d728        8     4         /home/ferrite/rusty1968/initiative/aspeed-rust/target/thumbv7em-none-eabihf/release/deps/aspeed_ddk-9593e973eaaa5586.aspeed_ddk.875e341dad0a8fe1-cgu.2.rcgu.o:(.rodata..Lanon.571dfd0a2175a5ca4977e238712e64af.85)
    d728     d728        8     1                 .Lanon.571dfd0a2175a5ca4977e238712e64af.85
    d730     d730       10     4         /home/ferrite/rusty1968/initiative/aspeed-rust/target/thumbv7em-none-eabihf/release/deps/aspeed_ddk-9593e973eaaa5586.aspeed_ddk.875e341dad0a8fe1-cgu.2.rcgu.o:(.rodata..Lanon.571dfd0a2175a5ca4977e238712e64af.86)
    d730     d730       10     1                 .Lanon.571dfd0a2175a5ca4977e238712e64af.86
    d740     d740       1d     1         /home/ferrite/rusty1968/initiative/aspeed-rust/target/thumbv7em-none-eabihf/release/deps/aspeed_ddk-9593e973eaaa5586.aspeed_ddk.875e341dad0a8fe1-cgu.2.rcgu.o:(.rodata..Lanon.571dfd0a2175a5ca4977e238712e64af.87)
    d760     d760        8     4         /home/ferrite/rusty1968/initiative/aspeed-rust/target/thumbv7em-none-eabihf/release/deps/aspeed_ddk-9593e973eaaa5586.aspeed_ddk.875e341dad0a8fe1-cgu.2.rcgu.o:(.rodata..Lanon.571dfd0a2175a5ca4977e238712e64af.88)
    d760     d760        8     1                 .Lanon.571dfd0a2175a5ca4977e238712e64af.88
    d768     d768       10     4         /home/ferrite/rusty1968/initiative/aspeed-rust/target/thumbv7em-none-eabihf/release/deps/aspeed_ddk-9593e973eaaa5586.aspeed_ddk.875e341dad0a8fe1-cgu.2.rcgu.o:(.rodata..Lanon.571dfd0a2175a5ca4977e238712e64af.89)
    d768     d768       10     1                 .Lanon.571dfd0a2175a5ca4977e238712e64af.89
    d778     d778       10     4         /home/ferrite/rusty1968/initiative/aspeed-rust/target/thumbv7em-none-eabihf/release/deps/aspeed_ddk-9593e973eaaa5586.aspeed_ddk.875e341dad0a8fe1-cgu.2.rcgu.o:(.rodata..Lanon.571dfd0a2175a5ca4977e238712e64af.90)
    d778     d778       10     1                 .Lanon.571dfd0a2175a5ca4977e238712e64af.90
    d788     d788       10     4         /home/ferrite/rusty1968/initiative/aspeed-rust/target/thumbv7em-none-eabihf/release/deps/aspeed_ddk-9593e973eaaa5586.aspeed_ddk.875e341dad0a8fe1-cgu.2.rcgu.o:(.rodata..Lanon.571dfd0a2175a5ca4977e238712e64af.91)
    d788     d788       10     1                 .Lanon.571dfd0a2175a5ca4977e238712e64af.91
    d798     d798       18     4         /home/ferrite/rusty1968/initiative/aspeed-rust/target/thumbv7em-none-eabihf/release/deps/aspeed_ddk-9593e973eaaa5586.aspeed_ddk.875e341dad0a8fe1-cgu.2.rcgu.o:(.rodata..Lanon.571dfd0a2175a5ca4977e238712e64af.92)
    d798     d798       18     1                 .Lanon.571dfd0a2175a5ca4977e238712e64af.92
    d7b0     d7b0        c     4         /home/ferrite/rusty1968/initiative/aspeed-rust/target/thumbv7em-none-eabihf/release/deps/aspeed_ddk-9593e973eaaa5586.aspeed_ddk.875e341dad0a8fe1-cgu.2.rcgu.o:(.rodata..Lanon.571dfd0a2175a5ca4977e238712e64af.93)
    d7b0     d7b0        c     1                 .Lanon.571dfd0a2175a5ca4977e238712e64af.93
    d7bc     d7bc       13     1         /home/ferrite/rusty1968/initiative/aspeed-rust/target/thumbv7em-none-eabihf/release/deps/aspeed_ddk-9593e973eaaa5586.aspeed_ddk.875e341dad0a8fe1-cgu.2.rcgu.o:(.rodata..Lanon.571dfd0a2175a5ca4977e238712e64af.94)
    d7d0     d7d0        8     4         /home/ferrite/rusty1968/initiative/aspeed-rust/target/thumbv7em-none-eabihf/release/deps/aspeed_ddk-9593e973eaaa5586.aspeed_ddk.875e341dad0a8fe1-cgu.2.rcgu.o:(.rodata..Lanon.571dfd0a2175a5ca4977e238712e64af.95)
    d7d0     d7d0        8     1                 .Lanon.571dfd0a2175a5ca4977e238712e64af.95
    d7d8     d7d8       10     4         /home/ferrite/rusty1968/initiative/aspeed-rust/target/thumbv7em-none-eabihf/release/deps/aspeed_ddk-9593e973eaaa5586.aspeed_ddk.875e341dad0a8fe1-cgu.2.rcgu.o:(.rodata..Lanon.571dfd0a2175a5ca4977e238712e64af.96)
    d7d8     d7d8       10     1                 .Lanon.571dfd0a2175a5ca4977e238712e64af.96
    d7e8     d7e8       14     4         /home/ferrite/rusty1968/initiative/aspeed-rust/target/thumbv7em-none-eabihf/release/deps/aspeed_ddk-9593e973eaaa5586.aspeed_ddk.875e341dad0a8fe1-cgu.2.rcgu.o:(.rodata..Lswitch.table._ZN69_$LT$aspeed_ddk..uart..Uart16550Error$u20$as$u20$core..fmt..Debug$GT$3fmt17h139c5543cd9345ecE)
    d7e8     d7e8       14     1                 .Lswitch.table._ZN69_$LT$aspeed_ddk..uart..Uart16550Error$u20$as$u20$core..fmt..Debug$GT$3fmt17h139c5543cd9345ecE
    d7fc     d7fc       14     4         /home/ferrite/rusty1968/initiative/aspeed-rust/target/thumbv7em-none-eabihf/release/deps/aspeed_ddk-9593e973eaaa5586.aspeed_ddk.875e341dad0a8fe1-cgu.2.rcgu.o:(.rodata..Lswitch.table._ZN69_$LT$aspeed_ddk..uart..Uart16550Error$u20$as$u20$core..fmt..Debug$GT$3fmt17h139c5543cd9345ecE.13)
    d7fc     d7fc       14     1                 .Lswitch.table._ZN69_$LT$aspeed_ddk..uart..Uart16550Error$u20$as$u20$core..fmt..Debug$GT$3fmt17h139c5543cd9345ecE.13
    d810     d810       18     4         /home/ferrite/rusty1968/initiative/aspeed-rust/target/thumbv7em-none-eabihf/release/deps/libaspeed_ddk-ba190f65fcc992d2.rlib(aspeed_ddk-ba190f65fcc992d2.aspeed_ddk.609ead220c3d04df-cgu.06.rcgu.o):(.rodata.anon.88a474613e69ba0e6b58409c76b2e8a9.0.llvm.16036159247860191969)
    d810     d810       18     1                 anon.88a474613e69ba0e6b58409c76b2e8a9.0.llvm.16036159247860191969
    d828     d828       10     4         /home/ferrite/rusty1968/initiative/aspeed-rust/target/thumbv7em-none-eabihf/release/deps/libaspeed_ddk-ba190f65fcc992d2.rlib(aspeed_ddk-ba190f65fcc992d2.aspeed_ddk.609ead220c3d04df-cgu.06.rcgu.o):(.rodata..Lanon.88a474613e69ba0e6b58409c76b2e8a9.2)
    d828     d828       10     1                 .Lanon.88a474613e69ba0e6b58409c76b2e8a9.2
    d838     d838        f     1         /home/ferrite/rusty1968/initiative/aspeed-rust/target/thumbv7em-none-eabihf/release/deps/libaspeed_ddk-ba190f65fcc992d2.rlib(aspeed_ddk-ba190f65fcc992d2.aspeed_ddk.609ead220c3d04df-cgu.06.rcgu.o):(.rodata..Lanon.88a474613e69ba0e6b58409c76b2e8a9.3)
    d838     d838        f     1                 .Lanon.88a474613e69ba0e6b58409c76b2e8a9.3
    d847     d847       2b     1         /home/ferrite/rusty1968/initiative/aspeed-rust/target/thumbv7em-none-eabihf/release/deps/libaspeed_ddk-ba190f65fcc992d2.rlib(aspeed_ddk-ba190f65fcc992d2.aspeed_ddk.609ead220c3d04df-cgu.06.rcgu.o):(.rodata.anon.88a474613e69ba0e6b58409c76b2e8a9.10.llvm.16036159247860191969)
    d847     d847       2b     1                 anon.88a474613e69ba0e6b58409c76b2e8a9.10.llvm.16036159247860191969
    d872     d872        b     1         /home/ferrite/rusty1968/initiative/aspeed-rust/target/thumbv7em-none-eabihf/release/deps/libaspeed_ddk-ba190f65fcc992d2.rlib(aspeed_ddk-ba190f65fcc992d2.aspeed_ddk.609ead220c3d04df-cgu.06.rcgu.o):(.rodata.anon.88a474613e69ba0e6b58409c76b2e8a9.41.llvm.16036159247860191969)
    d872     d872        b     1                 anon.88a474613e69ba0e6b58409c76b2e8a9.41.llvm.16036159247860191969
    d880     d880       10     4         /home/ferrite/rusty1968/initiative/aspeed-rust/target/thumbv7em-none-eabihf/release/deps/libaspeed_ddk-ba190f65fcc992d2.rlib(aspeed_ddk-ba190f65fcc992d2.aspeed_ddk.609ead220c3d04df-cgu.06.rcgu.o):(.rodata.anon.88a474613e69ba0e6b58409c76b2e8a9.42.llvm.16036159247860191969)
    d880     d880       10     1                 anon.88a474613e69ba0e6b58409c76b2e8a9.42.llvm.16036159247860191969
    d890     d890       10     4         /home/ferrite/rusty1968/initiative/aspeed-rust/target/thumbv7em-none-eabihf/release/deps/libaspeed_ddk-ba190f65fcc992d2.rlib(aspeed_ddk-ba190f65fcc992d2.aspeed_ddk.609ead220c3d04df-cgu.06.rcgu.o):(.rodata.anon.88a474613e69ba0e6b58409c76b2e8a9.43.llvm.16036159247860191969)
    d890     d890       10     1                 anon.88a474613e69ba0e6b58409c76b2e8a9.43.llvm.16036159247860191969
    d8a0     d8a0       10     4         /home/ferrite/rusty1968/initiative/aspeed-rust/target/thumbv7em-none-eabihf/release/deps/libaspeed_ddk-ba190f65fcc992d2.rlib(aspeed_ddk-ba190f65fcc992d2.aspeed_ddk.609ead220c3d04df-cgu.06.rcgu.o):(.rodata.anon.88a474613e69ba0e6b58409c76b2e8a9.44.llvm.16036159247860191969)
    d8a0     d8a0       10     1                 anon.88a474613e69ba0e6b58409c76b2e8a9.44.llvm.16036159247860191969
    d8b0     d8b0        7     1         /home/ferrite/rusty1968/initiative/aspeed-rust/target/thumbv7em-none-eabihf/release/deps/libaspeed_ddk-ba190f65fcc992d2.rlib(aspeed_ddk-ba190f65fcc992d2.aspeed_ddk.609ead220c3d04df-cgu.06.rcgu.o):(.rodata..Lanon.88a474613e69ba0e6b58409c76b2e8a9.45)
    d8b7     d8b7        6     1         /home/ferrite/rusty1968/initiative/aspeed-rust/target/thumbv7em-none-eabihf/release/deps/libaspeed_ddk-ba190f65fcc992d2.rlib(aspeed_ddk-ba190f65fcc992d2.aspeed_ddk.609ead220c3d04df-cgu.06.rcgu.o):(.rodata..Lanon.88a474613e69ba0e6b58409c76b2e8a9.46)
    d8bd     d8bd        7     1         /home/ferrite/rusty1968/initiative/aspeed-rust/target/thumbv7em-none-eabihf/release/deps/libaspeed_ddk-ba190f65fcc992d2.rlib(aspeed_ddk-ba190f65fcc992d2.aspeed_ddk.609ead220c3d04df-cgu.06.rcgu.o):(.rodata..Lanon.88a474613e69ba0e6b58409c76b2e8a9.47)
    d8c4     d8c4        5     1         /home/ferrite/rusty1968/initiative/aspeed-rust/target/thumbv7em-none-eabihf/release/deps/libaspeed_ddk-ba190f65fcc992d2.rlib(aspeed_ddk-ba190f65fcc992d2.aspeed_ddk.609ead220c3d04df-cgu.06.rcgu.o):(.rodata..Lanon.88a474613e69ba0e6b58409c76b2e8a9.48)
    d8c9     d8c9        7     1         /home/ferrite/rusty1968/initiative/aspeed-rust/target/thumbv7em-none-eabihf/release/deps/libaspeed_ddk-ba190f65fcc992d2.rlib(aspeed_ddk-ba190f65fcc992d2.aspeed_ddk.609ead220c3d04df-cgu.06.rcgu.o):(.rodata..Lanon.88a474613e69ba0e6b58409c76b2e8a9.49)
    d8d0     d8d0       14     4         /home/ferrite/rusty1968/initiative/aspeed-rust/target/thumbv7em-none-eabihf/release/deps/libaspeed_ddk-ba190f65fcc992d2.rlib(aspeed_ddk-ba190f65fcc992d2.aspeed_ddk.609ead220c3d04df-cgu.06.rcgu.o):(.rodata..Lswitch.table._ZN42_$LT$$RF$T$u20$as$u20$core..fmt..Debug$GT$3fmt17he630022910e8496bE)
    d8d0     d8d0       14     1                 .Lswitch.table._ZN42_$LT$$RF$T$u20$as$u20$core..fmt..Debug$GT$3fmt17he630022910e8496bE
    d8e4     d8e4       14     4         /home/ferrite/rusty1968/initiative/aspeed-rust/target/thumbv7em-none-eabihf/release/deps/libaspeed_ddk-ba190f65fcc992d2.rlib(aspeed_ddk-ba190f65fcc992d2.aspeed_ddk.609ead220c3d04df-cgu.06.rcgu.o):(.rodata..Lswitch.table._ZN42_$LT$$RF$T$u20$as$u20$core..fmt..Debug$GT$3fmt17he630022910e8496bE.1)
    d8e4     d8e4       14     1                 .Lswitch.table._ZN42_$LT$$RF$T$u20$as$u20$core..fmt..Debug$GT$3fmt17he630022910e8496bE.1
    d8f8     d8f8       18     4         /home/ferrite/rusty1968/initiative/aspeed-rust/target/thumbv7em-none-eabihf/release/deps/libaspeed_ddk-ba190f65fcc992d2.rlib(aspeed_ddk-ba190f65fcc992d2.aspeed_ddk.609ead220c3d04df-cgu.07.rcgu.o):(.rodata..Lanon.2696ff0fc79d19f22c08487cd199baab.0)
    d8f8     d8f8       18     1                 .Lanon.2696ff0fc79d19f22c08487cd199baab.0
    d910     d910        1     1         /home/ferrite/rusty1968/initiative/aspeed-rust/target/thumbv7em-none-eabihf/release/deps/libaspeed_ddk-ba190f65fcc992d2.rlib(aspeed_ddk-ba190f65fcc992d2.aspeed_ddk.609ead220c3d04df-cgu.07.rcgu.o):(.rodata.anon.2696ff0fc79d19f22c08487cd199baab.1.llvm.16290835220250711937)
    d910     d910        1     1                 anon.2696ff0fc79d19f22c08487cd199baab.1.llvm.16290835220250711937
    d914     d914       10     4         /home/ferrite/rusty1968/initiative/aspeed-rust/target/thumbv7em-none-eabihf/release/deps/libaspeed_ddk-ba190f65fcc992d2.rlib(aspeed_ddk-ba190f65fcc992d2.aspeed_ddk.609ead220c3d04df-cgu.07.rcgu.o):(.rodata.anon.2696ff0fc79d19f22c08487cd199baab.2.llvm.16290835220250711937)
    d914     d914       10     1                 anon.2696ff0fc79d19f22c08487cd199baab.2.llvm.16290835220250711937
    d924     d924        1     1         /home/ferrite/rusty1968/initiative/aspeed-rust/target/thumbv7em-none-eabihf/release/deps/libaspeed_ddk-ba190f65fcc992d2.rlib(aspeed_ddk-ba190f65fcc992d2.aspeed_ddk.609ead220c3d04df-cgu.07.rcgu.o):(.rodata.anon.2696ff0fc79d19f22c08487cd199baab.3.llvm.16290835220250711937)
    d924     d924        1     1                 anon.2696ff0fc79d19f22c08487cd199baab.3.llvm.16290835220250711937
    d928     d928        8     4         /home/ferrite/rusty1968/initiative/aspeed-rust/target/thumbv7em-none-eabihf/release/deps/libaspeed_ddk-ba190f65fcc992d2.rlib(aspeed_ddk-ba190f65fcc992d2.aspeed_ddk.609ead220c3d04df-cgu.07.rcgu.o):(.rodata.anon.2696ff0fc79d19f22c08487cd199baab.4.llvm.16290835220250711937)
    d928     d928        8     1                 anon.2696ff0fc79d19f22c08487cd199baab.4.llvm.16290835220250711937
    d930     d930        7     1         /home/ferrite/rusty1968/initiative/aspeed-rust/target/thumbv7em-none-eabihf/release/deps/libaspeed_ddk-ba190f65fcc992d2.rlib(aspeed_ddk-ba190f65fcc992d2.aspeed_ddk.609ead220c3d04df-cgu.07.rcgu.o):(.rodata.anon.2696ff0fc79d19f22c08487cd199baab.5.llvm.16290835220250711937)
    d930     d930        7     1                 anon.2696ff0fc79d19f22c08487cd199baab.5.llvm.16290835220250711937
    d938     d938       10     4         /home/ferrite/rusty1968/initiative/aspeed-rust/target/thumbv7em-none-eabihf/release/deps/libaspeed_ddk-ba190f65fcc992d2.rlib(aspeed_ddk-ba190f65fcc992d2.aspeed_ddk.609ead220c3d04df-cgu.07.rcgu.o):(.rodata.anon.2696ff0fc79d19f22c08487cd199baab.6.llvm.16290835220250711937)
    d938     d938       10     1                 anon.2696ff0fc79d19f22c08487cd199baab.6.llvm.16290835220250711937
    d948     d948       11     1         /home/ferrite/rusty1968/initiative/aspeed-rust/target/thumbv7em-none-eabihf/release/deps/libaspeed_ddk-ba190f65fcc992d2.rlib(aspeed_ddk-ba190f65fcc992d2.aspeed_ddk.609ead220c3d04df-cgu.07.rcgu.o):(.rodata..Lanon.2696ff0fc79d19f22c08487cd199baab.7)
    d95c     d95c       10     4         /home/ferrite/rusty1968/initiative/aspeed-rust/target/thumbv7em-none-eabihf/release/deps/libaspeed_ddk-ba190f65fcc992d2.rlib(aspeed_ddk-ba190f65fcc992d2.aspeed_ddk.609ead220c3d04df-cgu.07.rcgu.o):(.rodata..Lanon.2696ff0fc79d19f22c08487cd199baab.8)
    d95c     d95c       10     1                 .Lanon.2696ff0fc79d19f22c08487cd199baab.8
    d96c     d96c       10     4         /home/ferrite/rusty1968/initiative/aspeed-rust/target/thumbv7em-none-eabihf/release/deps/libaspeed_ddk-ba190f65fcc992d2.rlib(aspeed_ddk-ba190f65fcc992d2.aspeed_ddk.609ead220c3d04df-cgu.07.rcgu.o):(.rodata..Lanon.2696ff0fc79d19f22c08487cd199baab.9)
    d96c     d96c       10     1                 .Lanon.2696ff0fc79d19f22c08487cd199baab.9
    d97c     d97c       10     4         /home/ferrite/rusty1968/initiative/aspeed-rust/target/thumbv7em-none-eabihf/release/deps/libaspeed_ddk-ba190f65fcc992d2.rlib(aspeed_ddk-ba190f65fcc992d2.aspeed_ddk.609ead220c3d04df-cgu.07.rcgu.o):(.rodata..Lanon.2696ff0fc79d19f22c08487cd199baab.10)
    d97c     d97c       10     1                 .Lanon.2696ff0fc79d19f22c08487cd199baab.10
    d98c     d98c       1c     4         /home/ferrite/rusty1968/initiative/aspeed-rust/target/thumbv7em-none-eabihf/release/deps/libaspeed_ddk-ba190f65fcc992d2.rlib(aspeed_ddk-ba190f65fcc992d2.aspeed_ddk.609ead220c3d04df-cgu.07.rcgu.o):(.rodata..Lswitch.table._ZN156_$LT$aspeed_ddk..hash_owned..OwnedDigestContext$LT$openprot_hal_blocking..digest..Sha2_512$GT$$u20$as$u20$openprot_hal_blocking..digest..owned..DigestOp$GT$8finalize17h7b3ccea47764599dE)
    d98c     d98c       1c     1                 .Lswitch.table._ZN156_$LT$aspeed_ddk..hash_owned..OwnedDigestContext$LT$openprot_hal_blocking..digest..Sha2_512$GT$$u20$as$u20$openprot_hal_blocking..digest..owned..DigestOp$GT$8finalize17h7b3ccea47764599dE
    d9a8     d9a8       40     4         /home/ferrite/rusty1968/initiative/aspeed-rust/target/thumbv7em-none-eabihf/release/deps/libaspeed_ddk-ba190f65fcc992d2.rlib(aspeed_ddk-ba190f65fcc992d2.aspeed_ddk.609ead220c3d04df-cgu.08.rcgu.o):(.rodata.anon.86ae2f23155605e27129594411621bec.3.llvm.8910916504867372325)
    d9a8     d9a8       40     1                 anon.86ae2f23155605e27129594411621bec.3.llvm.8910916504867372325
    d9e8     d9e8       40     4         /home/ferrite/rusty1968/initiative/aspeed-rust/target/thumbv7em-none-eabihf/release/deps/libaspeed_ddk-ba190f65fcc992d2.rlib(aspeed_ddk-ba190f65fcc992d2.aspeed_ddk.609ead220c3d04df-cgu.08.rcgu.o):(.rodata.anon.86ae2f23155605e27129594411621bec.4.llvm.8910916504867372325)
    d9e8     d9e8       40     1                 anon.86ae2f23155605e27129594411621bec.4.llvm.8910916504867372325
    da28     da28       40     4         /home/ferrite/rusty1968/initiative/aspeed-rust/target/thumbv7em-none-eabihf/release/deps/libaspeed_ddk-ba190f65fcc992d2.rlib(aspeed_ddk-ba190f65fcc992d2.aspeed_ddk.609ead220c3d04df-cgu.08.rcgu.o):(.rodata.anon.86ae2f23155605e27129594411621bec.5.llvm.8910916504867372325)
    da28     da28       40     1                 anon.86ae2f23155605e27129594411621bec.5.llvm.8910916504867372325
    da68     da68       40     4         /home/ferrite/rusty1968/initiative/aspeed-rust/target/thumbv7em-none-eabihf/release/deps/libaspeed_ddk-ba190f65fcc992d2.rlib(aspeed_ddk-ba190f65fcc992d2.aspeed_ddk.609ead220c3d04df-cgu.08.rcgu.o):(.rodata.anon.86ae2f23155605e27129594411621bec.6.llvm.8910916504867372325)
    da68     da68       40     1                 anon.86ae2f23155605e27129594411621bec.6.llvm.8910916504867372325
    daa8     daa8       16     1         /home/ferrite/rusty1968/initiative/aspeed-rust/target/thumbv7em-none-eabihf/release/deps/libaspeed_ddk-ba190f65fcc992d2.rlib(aspeed_ddk-ba190f65fcc992d2.aspeed_ddk.609ead220c3d04df-cgu.08.rcgu.o):(.rodata.anon.86ae2f23155605e27129594411621bec.7.llvm.8910916504867372325)
    daa8     daa8       16     1                 anon.86ae2f23155605e27129594411621bec.7.llvm.8910916504867372325
    dac0     dac0       10     4         /home/ferrite/rusty1968/initiative/aspeed-rust/target/thumbv7em-none-eabihf/release/deps/libaspeed_ddk-ba190f65fcc992d2.rlib(aspeed_ddk-ba190f65fcc992d2.aspeed_ddk.609ead220c3d04df-cgu.08.rcgu.o):(.rodata.anon.86ae2f23155605e27129594411621bec.9.llvm.8910916504867372325)
    dac0     dac0       10     1                 anon.86ae2f23155605e27129594411621bec.9.llvm.8910916504867372325
    dad0     dad0       10     4         /home/ferrite/rusty1968/initiative/aspeed-rust/target/thumbv7em-none-eabihf/release/deps/libaspeed_ddk-ba190f65fcc992d2.rlib(aspeed_ddk-ba190f65fcc992d2.aspeed_ddk.609ead220c3d04df-cgu.08.rcgu.o):(.rodata.anon.86ae2f23155605e27129594411621bec.10.llvm.8910916504867372325)
    dad0     dad0       10     1                 anon.86ae2f23155605e27129594411621bec.10.llvm.8910916504867372325
    dae0     dae0       10     4         /home/ferrite/rusty1968/initiative/aspeed-rust/target/thumbv7em-none-eabihf/release/deps/libaspeed_ddk-ba190f65fcc992d2.rlib(aspeed_ddk-ba190f65fcc992d2.aspeed_ddk.609ead220c3d04df-cgu.08.rcgu.o):(.rodata.anon.86ae2f23155605e27129594411621bec.11.llvm.8910916504867372325)
    dae0     dae0       10     1                 anon.86ae2f23155605e27129594411621bec.11.llvm.8910916504867372325
    daf0     daf0       10     4         /home/ferrite/rusty1968/initiative/aspeed-rust/target/thumbv7em-none-eabihf/release/deps/libaspeed_ddk-ba190f65fcc992d2.rlib(aspeed_ddk-ba190f65fcc992d2.aspeed_ddk.609ead220c3d04df-cgu.08.rcgu.o):(.rodata.anon.86ae2f23155605e27129594411621bec.13.llvm.8910916504867372325)
    daf0     daf0       10     1                 anon.86ae2f23155605e27129594411621bec.13.llvm.8910916504867372325
    db00     db00       10     4         /home/ferrite/rusty1968/initiative/aspeed-rust/target/thumbv7em-none-eabihf/release/deps/libaspeed_ddk-ba190f65fcc992d2.rlib(aspeed_ddk-ba190f65fcc992d2.aspeed_ddk.609ead220c3d04df-cgu.08.rcgu.o):(.rodata.anon.86ae2f23155605e27129594411621bec.15.llvm.8910916504867372325)
    db00     db00       10     1                 anon.86ae2f23155605e27129594411621bec.15.llvm.8910916504867372325
    db10     db10       22     1         /home/ferrite/rusty1968/initiative/aspeed-rust/target/thumbv7em-none-eabihf/release/deps/libaspeed_ddk-ba190f65fcc992d2.rlib(aspeed_ddk-ba190f65fcc992d2.aspeed_ddk.609ead220c3d04df-cgu.09.rcgu.o):(.rodata..Lanon.ab65a41a4ebd8bb5411439330702fbd7.7)
    db10     db10       22     1                 .Lanon.ab65a41a4ebd8bb5411439330702fbd7.7
    db32     db32       23     1         /home/ferrite/rusty1968/initiative/aspeed-rust/target/thumbv7em-none-eabihf/release/deps/libaspeed_ddk-ba190f65fcc992d2.rlib(aspeed_ddk-ba190f65fcc992d2.aspeed_ddk.609ead220c3d04df-cgu.09.rcgu.o):(.rodata..Lanon.ab65a41a4ebd8bb5411439330702fbd7.8)
    db32     db32       23     1                 .Lanon.ab65a41a4ebd8bb5411439330702fbd7.8
    db55     db55       22     1         /home/ferrite/rusty1968/initiative/aspeed-rust/target/thumbv7em-none-eabihf/release/deps/libaspeed_ddk-ba190f65fcc992d2.rlib(aspeed_ddk-ba190f65fcc992d2.aspeed_ddk.609ead220c3d04df-cgu.09.rcgu.o):(.rodata..Lanon.ab65a41a4ebd8bb5411439330702fbd7.9)
    db55     db55       22     1                 .Lanon.ab65a41a4ebd8bb5411439330702fbd7.9
    db77     db77       23     1         /home/ferrite/rusty1968/initiative/aspeed-rust/target/thumbv7em-none-eabihf/release/deps/libaspeed_ddk-ba190f65fcc992d2.rlib(aspeed_ddk-ba190f65fcc992d2.aspeed_ddk.609ead220c3d04df-cgu.09.rcgu.o):(.rodata..Lanon.ab65a41a4ebd8bb5411439330702fbd7.10)
    db77     db77       23     1                 .Lanon.ab65a41a4ebd8bb5411439330702fbd7.10
    db9c     db9c       10     4         /home/ferrite/rusty1968/initiative/aspeed-rust/target/thumbv7em-none-eabihf/release/deps/libaspeed_ddk-ba190f65fcc992d2.rlib(aspeed_ddk-ba190f65fcc992d2.aspeed_ddk.609ead220c3d04df-cgu.10.rcgu.o):(.rodata.anon.cab40f481637e7403504aff5be8ab1b9.0.llvm.2124933250279125150)
    db9c     db9c       10     1                 anon.cab40f481637e7403504aff5be8ab1b9.0.llvm.2124933250279125150
    dbac     dbac       10     4         /home/ferrite/rusty1968/initiative/aspeed-rust/target/thumbv7em-none-eabihf/release/deps/libaspeed_ddk-ba190f65fcc992d2.rlib(aspeed_ddk-ba190f65fcc992d2.aspeed_ddk.609ead220c3d04df-cgu.10.rcgu.o):(.rodata..Lanon.cab40f481637e7403504aff5be8ab1b9.2)
    dbac     dbac       10     1                 .Lanon.cab40f481637e7403504aff5be8ab1b9.2
    dbbc     dbbc        5     1         /home/ferrite/rusty1968/initiative/aspeed-rust/target/thumbv7em-none-eabihf/release/deps/libaspeed_ddk-ba190f65fcc992d2.rlib(aspeed_ddk-ba190f65fcc992d2.aspeed_ddk.609ead220c3d04df-cgu.10.rcgu.o):(.rodata..Lanon.cab40f481637e7403504aff5be8ab1b9.3)
    dbbc     dbbc        5     1                 .Lanon.cab40f481637e7403504aff5be8ab1b9.3
    dbc1     dbc1        1     1         /home/ferrite/rusty1968/initiative/aspeed-rust/target/thumbv7em-none-eabihf/release/deps/libaspeed_ddk-ba190f65fcc992d2.rlib(aspeed_ddk-ba190f65fcc992d2.aspeed_ddk.609ead220c3d04df-cgu.10.rcgu.o):(.rodata..Lanon.cab40f481637e7403504aff5be8ab1b9.4)
    dbc4     dbc4        8     4         /home/ferrite/rusty1968/initiative/aspeed-rust/target/thumbv7em-none-eabihf/release/deps/libaspeed_ddk-ba190f65fcc992d2.rlib(aspeed_ddk-ba190f65fcc992d2.aspeed_ddk.609ead220c3d04df-cgu.10.rcgu.o):(.rodata..Lanon.cab40f481637e7403504aff5be8ab1b9.5)
    dbc4     dbc4        8     1                 .Lanon.cab40f481637e7403504aff5be8ab1b9.5
    dbcc     dbcc       10     4         /home/ferrite/rusty1968/initiative/aspeed-rust/target/thumbv7em-none-eabihf/release/deps/libaspeed_ddk-ba190f65fcc992d2.rlib(aspeed_ddk-ba190f65fcc992d2.aspeed_ddk.609ead220c3d04df-cgu.10.rcgu.o):(.rodata..Lanon.cab40f481637e7403504aff5be8ab1b9.6)
    dbcc     dbcc       10     1                 .Lanon.cab40f481637e7403504aff5be8ab1b9.6
    dbdc     dbdc       2b     1         /home/ferrite/rusty1968/initiative/aspeed-rust/target/thumbv7em-none-eabihf/release/deps/libaspeed_ddk-ba190f65fcc992d2.rlib(aspeed_ddk-ba190f65fcc992d2.aspeed_ddk.609ead220c3d04df-cgu.10.rcgu.o):(.rodata..Lanon.cab40f481637e7403504aff5be8ab1b9.7)
    dbdc     dbdc       2b     1                 .Lanon.cab40f481637e7403504aff5be8ab1b9.7
    dc07     dc07       21     1         /home/ferrite/rusty1968/initiative/aspeed-rust/target/thumbv7em-none-eabihf/release/deps/libaspeed_ddk-ba190f65fcc992d2.rlib(aspeed_ddk-ba190f65fcc992d2.aspeed_ddk.609ead220c3d04df-cgu.10.rcgu.o):(.rodata..Lanon.cab40f481637e7403504aff5be8ab1b9.8)
    dc28     dc28       10     4         /home/ferrite/rusty1968/initiative/aspeed-rust/target/thumbv7em-none-eabihf/release/deps/libaspeed_ddk-ba190f65fcc992d2.rlib(aspeed_ddk-ba190f65fcc992d2.aspeed_ddk.609ead220c3d04df-cgu.10.rcgu.o):(.rodata..Lanon.cab40f481637e7403504aff5be8ab1b9.9)
    dc28     dc28       10     1                 .Lanon.cab40f481637e7403504aff5be8ab1b9.9
    dc38     dc38        2     1         /home/ferrite/rusty1968/initiative/aspeed-rust/target/thumbv7em-none-eabihf/release/deps/libaspeed_ddk-ba190f65fcc992d2.rlib(aspeed_ddk-ba190f65fcc992d2.aspeed_ddk.609ead220c3d04df-cgu.10.rcgu.o):(.rodata..Lanon.cab40f481637e7403504aff5be8ab1b9.10)
    dc3c     dc3c        8     4         /home/ferrite/rusty1968/initiative/aspeed-rust/target/thumbv7em-none-eabihf/release/deps/libaspeed_ddk-ba190f65fcc992d2.rlib(aspeed_ddk-ba190f65fcc992d2.aspeed_ddk.609ead220c3d04df-cgu.10.rcgu.o):(.rodata..Lanon.cab40f481637e7403504aff5be8ab1b9.11)
    dc3c     dc3c        8     1                 .Lanon.cab40f481637e7403504aff5be8ab1b9.11
    dc44     dc44       10     4         /home/ferrite/rusty1968/initiative/aspeed-rust/target/thumbv7em-none-eabihf/release/deps/libaspeed_ddk-ba190f65fcc992d2.rlib(aspeed_ddk-ba190f65fcc992d2.aspeed_ddk.609ead220c3d04df-cgu.10.rcgu.o):(.rodata..Lanon.cab40f481637e7403504aff5be8ab1b9.12)
    dc44     dc44       10     1                 .Lanon.cab40f481637e7403504aff5be8ab1b9.12
    dc54     dc54        1     1         /home/ferrite/rusty1968/initiative/aspeed-rust/target/thumbv7em-none-eabihf/release/deps/libaspeed_ddk-ba190f65fcc992d2.rlib(aspeed_ddk-ba190f65fcc992d2.aspeed_ddk.609ead220c3d04df-cgu.10.rcgu.o):(.rodata..Lanon.cab40f481637e7403504aff5be8ab1b9.13)
    dc58     dc58        8     4         /home/ferrite/rusty1968/initiative/aspeed-rust/target/thumbv7em-none-eabihf/release/deps/libaspeed_ddk-ba190f65fcc992d2.rlib(aspeed_ddk-ba190f65fcc992d2.aspeed_ddk.609ead220c3d04df-cgu.10.rcgu.o):(.rodata..Lanon.cab40f481637e7403504aff5be8ab1b9.14)
    dc58     dc58        8     1                 .Lanon.cab40f481637e7403504aff5be8ab1b9.14
    dc60     dc60       10     4         /home/ferrite/rusty1968/initiative/aspeed-rust/target/thumbv7em-none-eabihf/release/deps/libaspeed_ddk-ba190f65fcc992d2.rlib(aspeed_ddk-ba190f65fcc992d2.aspeed_ddk.609ead220c3d04df-cgu.10.rcgu.o):(.rodata..Lanon.cab40f481637e7403504aff5be8ab1b9.16)
    dc60     dc60       10     1                 .Lanon.cab40f481637e7403504aff5be8ab1b9.16
    dc70     dc70       10     4         /home/ferrite/rusty1968/initiative/aspeed-rust/target/thumbv7em-none-eabihf/release/deps/libaspeed_ddk-ba190f65fcc992d2.rlib(aspeed_ddk-ba190f65fcc992d2.aspeed_ddk.609ead220c3d04df-cgu.10.rcgu.o):(.rodata..Lanon.cab40f481637e7403504aff5be8ab1b9.17)
    dc70     dc70       10     1                 .Lanon.cab40f481637e7403504aff5be8ab1b9.17
    dc80     dc80        5     1         /home/ferrite/rusty1968/initiative/aspeed-rust/target/thumbv7em-none-eabihf/release/deps/libaspeed_ddk-ba190f65fcc992d2.rlib(aspeed_ddk-ba190f65fcc992d2.aspeed_ddk.609ead220c3d04df-cgu.10.rcgu.o):(.rodata..Lanon.cab40f481637e7403504aff5be8ab1b9.18)
    dc85     dc85        3     1         /home/ferrite/rusty1968/initiative/aspeed-rust/target/thumbv7em-none-eabihf/release/deps/libaspeed_ddk-ba190f65fcc992d2.rlib(aspeed_ddk-ba190f65fcc992d2.aspeed_ddk.609ead220c3d04df-cgu.10.rcgu.o):(.rodata..Lanon.cab40f481637e7403504aff5be8ab1b9.19)
    dc88     dc88       18     4         /home/ferrite/rusty1968/initiative/aspeed-rust/target/thumbv7em-none-eabihf/release/deps/libaspeed_ddk-ba190f65fcc992d2.rlib(aspeed_ddk-ba190f65fcc992d2.aspeed_ddk.609ead220c3d04df-cgu.10.rcgu.o):(.rodata..Lanon.cab40f481637e7403504aff5be8ab1b9.20)
    dc88     dc88       18     1                 .Lanon.cab40f481637e7403504aff5be8ab1b9.20
    dca0     dca0       10     4         /home/ferrite/rusty1968/initiative/aspeed-rust/target/thumbv7em-none-eabihf/release/deps/libaspeed_ddk-ba190f65fcc992d2.rlib(aspeed_ddk-ba190f65fcc992d2.aspeed_ddk.609ead220c3d04df-cgu.10.rcgu.o):(.rodata..Lanon.cab40f481637e7403504aff5be8ab1b9.21)
    dca0     dca0       10     1                 .Lanon.cab40f481637e7403504aff5be8ab1b9.21
    dcb0     dcb0        5     1         /home/ferrite/rusty1968/initiative/aspeed-rust/target/thumbv7em-none-eabihf/release/deps/libaspeed_ddk-ba190f65fcc992d2.rlib(aspeed_ddk-ba190f65fcc992d2.aspeed_ddk.609ead220c3d04df-cgu.10.rcgu.o):(.rodata..Lanon.cab40f481637e7403504aff5be8ab1b9.22)
    dcb8     dcb8       10     4         /home/ferrite/rusty1968/initiative/aspeed-rust/target/thumbv7em-none-eabihf/release/deps/libaspeed_ddk-ba190f65fcc992d2.rlib(aspeed_ddk-ba190f65fcc992d2.aspeed_ddk.609ead220c3d04df-cgu.10.rcgu.o):(.rodata..Lanon.cab40f481637e7403504aff5be8ab1b9.23)
    dcb8     dcb8       10     1                 .Lanon.cab40f481637e7403504aff5be8ab1b9.23
    dcc8     dcc8        3     1         /home/ferrite/rusty1968/initiative/aspeed-rust/target/thumbv7em-none-eabihf/release/deps/libaspeed_ddk-ba190f65fcc992d2.rlib(aspeed_ddk-ba190f65fcc992d2.aspeed_ddk.609ead220c3d04df-cgu.10.rcgu.o):(.rodata..Lanon.cab40f481637e7403504aff5be8ab1b9.24)
    dccc     dccc        8     4         /home/ferrite/rusty1968/initiative/aspeed-rust/target/thumbv7em-none-eabihf/release/deps/libaspeed_ddk-ba190f65fcc992d2.rlib(aspeed_ddk-ba190f65fcc992d2.aspeed_ddk.609ead220c3d04df-cgu.10.rcgu.o):(.rodata..Lanon.cab40f481637e7403504aff5be8ab1b9.25)
    dccc     dccc        8     1                 .Lanon.cab40f481637e7403504aff5be8ab1b9.25
    dcd4     dcd4       10     4         /home/ferrite/rusty1968/initiative/aspeed-rust/target/thumbv7em-none-eabihf/release/deps/libaspeed_ddk-ba190f65fcc992d2.rlib(aspeed_ddk-ba190f65fcc992d2.aspeed_ddk.609ead220c3d04df-cgu.10.rcgu.o):(.rodata..Lanon.cab40f481637e7403504aff5be8ab1b9.26)
    dcd4     dcd4       10     1                 .Lanon.cab40f481637e7403504aff5be8ab1b9.26
    dce4     dce4        2     1         /home/ferrite/rusty1968/initiative/aspeed-rust/target/thumbv7em-none-eabihf/release/deps/libaspeed_ddk-ba190f65fcc992d2.rlib(aspeed_ddk-ba190f65fcc992d2.aspeed_ddk.609ead220c3d04df-cgu.10.rcgu.o):(.rodata..Lanon.cab40f481637e7403504aff5be8ab1b9.27)
    dce8     dce8        8     4         /home/ferrite/rusty1968/initiative/aspeed-rust/target/thumbv7em-none-eabihf/release/deps/libaspeed_ddk-ba190f65fcc992d2.rlib(aspeed_ddk-ba190f65fcc992d2.aspeed_ddk.609ead220c3d04df-cgu.10.rcgu.o):(.rodata..Lanon.cab40f481637e7403504aff5be8ab1b9.28)
    dce8     dce8        8     1                 .Lanon.cab40f481637e7403504aff5be8ab1b9.28
    dcf0     dcf0        2     1         /home/ferrite/rusty1968/initiative/aspeed-rust/target/thumbv7em-none-eabihf/release/deps/libaspeed_ddk-ba190f65fcc992d2.rlib(aspeed_ddk-ba190f65fcc992d2.aspeed_ddk.609ead220c3d04df-cgu.10.rcgu.o):(.rodata..Lanon.cab40f481637e7403504aff5be8ab1b9.29)
    dcf4     dcf4        8     4         /home/ferrite/rusty1968/initiative/aspeed-rust/target/thumbv7em-none-eabihf/release/deps/libaspeed_ddk-ba190f65fcc992d2.rlib(aspeed_ddk-ba190f65fcc992d2.aspeed_ddk.609ead220c3d04df-cgu.10.rcgu.o):(.rodata..Lanon.cab40f481637e7403504aff5be8ab1b9.30)
    dcf4     dcf4        8     1                 .Lanon.cab40f481637e7403504aff5be8ab1b9.30
    dcfc     dcfc       10     4         /home/ferrite/rusty1968/initiative/aspeed-rust/target/thumbv7em-none-eabihf/release/deps/libaspeed_ddk-ba190f65fcc992d2.rlib(aspeed_ddk-ba190f65fcc992d2.aspeed_ddk.609ead220c3d04df-cgu.10.rcgu.o):(.rodata..Lanon.cab40f481637e7403504aff5be8ab1b9.31)
    dcfc     dcfc       10     1                 .Lanon.cab40f481637e7403504aff5be8ab1b9.31
    dd0c     dd0c       10     4         /home/ferrite/rusty1968/initiative/aspeed-rust/target/thumbv7em-none-eabihf/release/deps/libaspeed_ddk-ba190f65fcc992d2.rlib(aspeed_ddk-ba190f65fcc992d2.aspeed_ddk.609ead220c3d04df-cgu.10.rcgu.o):(.rodata..Lanon.cab40f481637e7403504aff5be8ab1b9.32)
    dd0c     dd0c       10     1                 .Lanon.cab40f481637e7403504aff5be8ab1b9.32
    dd1c     dd1c       10     4         /home/ferrite/rusty1968/initiative/aspeed-rust/target/thumbv7em-none-eabihf/release/deps/libaspeed_ddk-ba190f65fcc992d2.rlib(aspeed_ddk-ba190f65fcc992d2.aspeed_ddk.609ead220c3d04df-cgu.10.rcgu.o):(.rodata..Lanon.cab40f481637e7403504aff5be8ab1b9.33)
    dd1c     dd1c       10     1                 .Lanon.cab40f481637e7403504aff5be8ab1b9.33
    dd2c     dd2c       2b     4         /home/ferrite/rusty1968/initiative/aspeed-rust/target/thumbv7em-none-eabihf/release/deps/libaspeed_ddk-ba190f65fcc992d2.rlib(aspeed_ddk-ba190f65fcc992d2.aspeed_ddk.609ead220c3d04df-cgu.10.rcgu.o):(.rodata..Lanon.cab40f481637e7403504aff5be8ab1b9.34)
    dd2c     dd2c       2b     1                 .Lanon.cab40f481637e7403504aff5be8ab1b9.34
    dd57     dd57       18     1         /home/ferrite/rusty1968/initiative/aspeed-rust/target/thumbv7em-none-eabihf/release/deps/libaspeed_ddk-ba190f65fcc992d2.rlib(aspeed_ddk-ba190f65fcc992d2.aspeed_ddk.609ead220c3d04df-cgu.10.rcgu.o):(.rodata..Lanon.cab40f481637e7403504aff5be8ab1b9.35)
    dd70     dd70        8     4         /home/ferrite/rusty1968/initiative/aspeed-rust/target/thumbv7em-none-eabihf/release/deps/libaspeed_ddk-ba190f65fcc992d2.rlib(aspeed_ddk-ba190f65fcc992d2.aspeed_ddk.609ead220c3d04df-cgu.10.rcgu.o):(.rodata..Lanon.cab40f481637e7403504aff5be8ab1b9.36)
    dd70     dd70        8     1                 .Lanon.cab40f481637e7403504aff5be8ab1b9.36
    dd78     dd78       10     4         /home/ferrite/rusty1968/initiative/aspeed-rust/target/thumbv7em-none-eabihf/release/deps/libaspeed_ddk-ba190f65fcc992d2.rlib(aspeed_ddk-ba190f65fcc992d2.aspeed_ddk.609ead220c3d04df-cgu.10.rcgu.o):(.rodata..Lanon.cab40f481637e7403504aff5be8ab1b9.37)
    dd78     dd78       10     1                 .Lanon.cab40f481637e7403504aff5be8ab1b9.37
    dd88     dd88       18     1         /home/ferrite/rusty1968/initiative/aspeed-rust/target/thumbv7em-none-eabihf/release/deps/libaspeed_ddk-ba190f65fcc992d2.rlib(aspeed_ddk-ba190f65fcc992d2.aspeed_ddk.609ead220c3d04df-cgu.10.rcgu.o):(.rodata..Lanon.cab40f481637e7403504aff5be8ab1b9.38)
    dd88     dd88       18     1                 .Lanon.cab40f481637e7403504aff5be8ab1b9.38
    dda0     dda0        7     1         /home/ferrite/rusty1968/initiative/aspeed-rust/target/thumbv7em-none-eabihf/release/deps/libaspeed_ddk-ba190f65fcc992d2.rlib(aspeed_ddk-ba190f65fcc992d2.aspeed_ddk.609ead220c3d04df-cgu.10.rcgu.o):(.rodata..Lanon.cab40f481637e7403504aff5be8ab1b9.39)
    dda8     dda8        8     4         /home/ferrite/rusty1968/initiative/aspeed-rust/target/thumbv7em-none-eabihf/release/deps/libaspeed_ddk-ba190f65fcc992d2.rlib(aspeed_ddk-ba190f65fcc992d2.aspeed_ddk.609ead220c3d04df-cgu.10.rcgu.o):(.rodata..Lanon.cab40f481637e7403504aff5be8ab1b9.40)
    dda8     dda8        8     1                 .Lanon.cab40f481637e7403504aff5be8ab1b9.40
    ddb0     ddb0        a     1         /home/ferrite/rusty1968/initiative/aspeed-rust/target/thumbv7em-none-eabihf/release/deps/libaspeed_ddk-ba190f65fcc992d2.rlib(aspeed_ddk-ba190f65fcc992d2.aspeed_ddk.609ead220c3d04df-cgu.10.rcgu.o):(.rodata..Lanon.cab40f481637e7403504aff5be8ab1b9.41)
    ddbc     ddbc        8     4         /home/ferrite/rusty1968/initiative/aspeed-rust/target/thumbv7em-none-eabihf/release/deps/libaspeed_ddk-ba190f65fcc992d2.rlib(aspeed_ddk-ba190f65fcc992d2.aspeed_ddk.609ead220c3d04df-cgu.10.rcgu.o):(.rodata..Lanon.cab40f481637e7403504aff5be8ab1b9.42)
    ddbc     ddbc        8     1                 .Lanon.cab40f481637e7403504aff5be8ab1b9.42
    ddc4     ddc4       40     1         /home/ferrite/rusty1968/initiative/aspeed-rust/target/thumbv7em-none-eabihf/release/deps/libaspeed_ddk-ba190f65fcc992d2.rlib(aspeed_ddk-ba190f65fcc992d2.aspeed_ddk.609ead220c3d04df-cgu.10.rcgu.o):(.rodata..Lanon.cab40f481637e7403504aff5be8ab1b9.43)
    ddc4     ddc4       40     1                 .Lanon.cab40f481637e7403504aff5be8ab1b9.43
    de04     de04       30     1         /home/ferrite/rusty1968/initiative/aspeed-rust/target/thumbv7em-none-eabihf/release/deps/libaspeed_ddk-ba190f65fcc992d2.rlib(aspeed_ddk-ba190f65fcc992d2.aspeed_ddk.609ead220c3d04df-cgu.10.rcgu.o):(.rodata..Lanon.cab40f481637e7403504aff5be8ab1b9.44)
    de04     de04       30     1                 .Lanon.cab40f481637e7403504aff5be8ab1b9.44
    de34     de34        f     1         /home/ferrite/rusty1968/initiative/aspeed-rust/target/thumbv7em-none-eabihf/release/deps/libaspeed_ddk-ba190f65fcc992d2.rlib(aspeed_ddk-ba190f65fcc992d2.aspeed_ddk.609ead220c3d04df-cgu.10.rcgu.o):(.rodata..Lanon.cab40f481637e7403504aff5be8ab1b9.46)
    de44     de44       10     4         /home/ferrite/rusty1968/initiative/aspeed-rust/target/thumbv7em-none-eabihf/release/deps/libaspeed_ddk-ba190f65fcc992d2.rlib(aspeed_ddk-ba190f65fcc992d2.aspeed_ddk.609ead220c3d04df-cgu.10.rcgu.o):(.rodata..Lanon.cab40f481637e7403504aff5be8ab1b9.47)
    de44     de44       10     1                 .Lanon.cab40f481637e7403504aff5be8ab1b9.47
    de54     de54        a     1         /home/ferrite/rusty1968/initiative/aspeed-rust/target/thumbv7em-none-eabihf/release/deps/libaspeed_ddk-ba190f65fcc992d2.rlib(aspeed_ddk-ba190f65fcc992d2.aspeed_ddk.609ead220c3d04df-cgu.10.rcgu.o):(.rodata..Lanon.cab40f481637e7403504aff5be8ab1b9.48)
    de60     de60        8     4         /home/ferrite/rusty1968/initiative/aspeed-rust/target/thumbv7em-none-eabihf/release/deps/libaspeed_ddk-ba190f65fcc992d2.rlib(aspeed_ddk-ba190f65fcc992d2.aspeed_ddk.609ead220c3d04df-cgu.10.rcgu.o):(.rodata..Lanon.cab40f481637e7403504aff5be8ab1b9.49)
    de60     de60        8     1                 .Lanon.cab40f481637e7403504aff5be8ab1b9.49
    de68     de68        5     1         /home/ferrite/rusty1968/initiative/aspeed-rust/target/thumbv7em-none-eabihf/release/deps/libaspeed_ddk-ba190f65fcc992d2.rlib(aspeed_ddk-ba190f65fcc992d2.aspeed_ddk.609ead220c3d04df-cgu.10.rcgu.o):(.rodata..Lanon.cab40f481637e7403504aff5be8ab1b9.50)
    de70     de70        8     4         /home/ferrite/rusty1968/initiative/aspeed-rust/target/thumbv7em-none-eabihf/release/deps/libaspeed_ddk-ba190f65fcc992d2.rlib(aspeed_ddk-ba190f65fcc992d2.aspeed_ddk.609ead220c3d04df-cgu.10.rcgu.o):(.rodata..Lanon.cab40f481637e7403504aff5be8ab1b9.51)
    de70     de70        8     1                 .Lanon.cab40f481637e7403504aff5be8ab1b9.51
    de78     de78       10     4         /home/ferrite/rusty1968/initiative/aspeed-rust/target/thumbv7em-none-eabihf/release/deps/libaspeed_ddk-ba190f65fcc992d2.rlib(aspeed_ddk-ba190f65fcc992d2.aspeed_ddk.609ead220c3d04df-cgu.10.rcgu.o):(.rodata..Lanon.cab40f481637e7403504aff5be8ab1b9.52)
    de78     de78       10     1                 .Lanon.cab40f481637e7403504aff5be8ab1b9.52
    de88     de88       10     4         /home/ferrite/rusty1968/initiative/aspeed-rust/target/thumbv7em-none-eabihf/release/deps/libaspeed_ddk-ba190f65fcc992d2.rlib(aspeed_ddk-ba190f65fcc992d2.aspeed_ddk.609ead220c3d04df-cgu.10.rcgu.o):(.rodata..Lanon.cab40f481637e7403504aff5be8ab1b9.53)
    de88     de88       10     1                 .Lanon.cab40f481637e7403504aff5be8ab1b9.53
    de98     de98       10     4         /home/ferrite/rusty1968/initiative/aspeed-rust/target/thumbv7em-none-eabihf/release/deps/libaspeed_ddk-ba190f65fcc992d2.rlib(aspeed_ddk-ba190f65fcc992d2.aspeed_ddk.609ead220c3d04df-cgu.10.rcgu.o):(.rodata..Lanon.cab40f481637e7403504aff5be8ab1b9.54)
    de98     de98       10     1                 .Lanon.cab40f481637e7403504aff5be8ab1b9.54
    dea8     dea8        f     1         /home/ferrite/rusty1968/initiative/aspeed-rust/target/thumbv7em-none-eabihf/release/deps/libaspeed_ddk-ba190f65fcc992d2.rlib(aspeed_ddk-ba190f65fcc992d2.aspeed_ddk.609ead220c3d04df-cgu.10.rcgu.o):(.rodata..Lanon.cab40f481637e7403504aff5be8ab1b9.55)
    deb8     deb8       10     4         /home/ferrite/rusty1968/initiative/aspeed-rust/target/thumbv7em-none-eabihf/release/deps/libaspeed_ddk-ba190f65fcc992d2.rlib(aspeed_ddk-ba190f65fcc992d2.aspeed_ddk.609ead220c3d04df-cgu.10.rcgu.o):(.rodata..Lanon.cab40f481637e7403504aff5be8ab1b9.56)
    deb8     deb8       10     1                 .Lanon.cab40f481637e7403504aff5be8ab1b9.56
    dec8     dec8       10     4         /home/ferrite/rusty1968/initiative/aspeed-rust/target/thumbv7em-none-eabihf/release/deps/libaspeed_ddk-ba190f65fcc992d2.rlib(aspeed_ddk-ba190f65fcc992d2.aspeed_ddk.609ead220c3d04df-cgu.10.rcgu.o):(.rodata..Lanon.cab40f481637e7403504aff5be8ab1b9.57)
    dec8     dec8       10     1                 .Lanon.cab40f481637e7403504aff5be8ab1b9.57
    ded8     ded8       10     4         /home/ferrite/rusty1968/initiative/aspeed-rust/target/thumbv7em-none-eabihf/release/deps/libaspeed_ddk-ba190f65fcc992d2.rlib(aspeed_ddk-ba190f65fcc992d2.aspeed_ddk.609ead220c3d04df-cgu.10.rcgu.o):(.rodata..Lanon.cab40f481637e7403504aff5be8ab1b9.58)
    ded8     ded8       10     1                 .Lanon.cab40f481637e7403504aff5be8ab1b9.58
    dee8     dee8       10     4         /home/ferrite/rusty1968/initiative/aspeed-rust/target/thumbv7em-none-eabihf/release/deps/libaspeed_ddk-ba190f65fcc992d2.rlib(aspeed_ddk-ba190f65fcc992d2.aspeed_ddk.609ead220c3d04df-cgu.10.rcgu.o):(.rodata..Lanon.cab40f481637e7403504aff5be8ab1b9.59)
    dee8     dee8       10     1                 .Lanon.cab40f481637e7403504aff5be8ab1b9.59
    def8     def8       10     4         /home/ferrite/rusty1968/initiative/aspeed-rust/target/thumbv7em-none-eabihf/release/deps/libaspeed_ddk-ba190f65fcc992d2.rlib(aspeed_ddk-ba190f65fcc992d2.aspeed_ddk.609ead220c3d04df-cgu.10.rcgu.o):(.rodata..Lanon.cab40f481637e7403504aff5be8ab1b9.60)
    def8     def8       10     1                 .Lanon.cab40f481637e7403504aff5be8ab1b9.60
    df08     df08       10     4         /home/ferrite/rusty1968/initiative/aspeed-rust/target/thumbv7em-none-eabihf/release/deps/libaspeed_ddk-ba190f65fcc992d2.rlib(aspeed_ddk-ba190f65fcc992d2.aspeed_ddk.609ead220c3d04df-cgu.10.rcgu.o):(.rodata..Lanon.cab40f481637e7403504aff5be8ab1b9.62)
    df08     df08       10     1                 .Lanon.cab40f481637e7403504aff5be8ab1b9.62
    df18     df18       18     1         /home/ferrite/rusty1968/initiative/aspeed-rust/target/thumbv7em-none-eabihf/release/deps/libaspeed_ddk-ba190f65fcc992d2.rlib(aspeed_ddk-ba190f65fcc992d2.aspeed_ddk.609ead220c3d04df-cgu.10.rcgu.o):(.rodata..Lanon.cab40f481637e7403504aff5be8ab1b9.63)
    df18     df18       18     1                 .Lanon.cab40f481637e7403504aff5be8ab1b9.63
    df30     df30       18     1         /home/ferrite/rusty1968/initiative/aspeed-rust/target/thumbv7em-none-eabihf/release/deps/libaspeed_ddk-ba190f65fcc992d2.rlib(aspeed_ddk-ba190f65fcc992d2.aspeed_ddk.609ead220c3d04df-cgu.10.rcgu.o):(.rodata..Lanon.cab40f481637e7403504aff5be8ab1b9.64)
    df30     df30       18     1                 .Lanon.cab40f481637e7403504aff5be8ab1b9.64
    df48     df48       10     4         /home/ferrite/rusty1968/initiative/aspeed-rust/target/thumbv7em-none-eabihf/release/deps/libaspeed_ddk-ba190f65fcc992d2.rlib(aspeed_ddk-ba190f65fcc992d2.aspeed_ddk.609ead220c3d04df-cgu.10.rcgu.o):(.rodata..Lanon.cab40f481637e7403504aff5be8ab1b9.65)
    df48     df48       10     1                 .Lanon.cab40f481637e7403504aff5be8ab1b9.65
    df58     df58       12     1         /home/ferrite/rusty1968/initiative/aspeed-rust/target/thumbv7em-none-eabihf/release/deps/libaspeed_ddk-ba190f65fcc992d2.rlib(aspeed_ddk-ba190f65fcc992d2.aspeed_ddk.609ead220c3d04df-cgu.11.rcgu.o):(.rodata..Lanon.ff79b93049ee86ddbba6f65c5ff4b42f.0)
    df6a     df6a       14     1         /home/ferrite/rusty1968/initiative/aspeed-rust/target/thumbv7em-none-eabihf/release/deps/libaspeed_ddk-ba190f65fcc992d2.rlib(aspeed_ddk-ba190f65fcc992d2.aspeed_ddk.609ead220c3d04df-cgu.11.rcgu.o):(.rodata..Lanon.ff79b93049ee86ddbba6f65c5ff4b42f.1)
    df7e     df7e       17     1         /home/ferrite/rusty1968/initiative/aspeed-rust/target/thumbv7em-none-eabihf/release/deps/libaspeed_ddk-ba190f65fcc992d2.rlib(aspeed_ddk-ba190f65fcc992d2.aspeed_ddk.609ead220c3d04df-cgu.11.rcgu.o):(.rodata..Lanon.ff79b93049ee86ddbba6f65c5ff4b42f.2)
    df95     df95       13     1         /home/ferrite/rusty1968/initiative/aspeed-rust/target/thumbv7em-none-eabihf/release/deps/libaspeed_ddk-ba190f65fcc992d2.rlib(aspeed_ddk-ba190f65fcc992d2.aspeed_ddk.609ead220c3d04df-cgu.11.rcgu.o):(.rodata..Lanon.ff79b93049ee86ddbba6f65c5ff4b42f.3)
    dfa8     dfa8        b     1         /home/ferrite/rusty1968/initiative/aspeed-rust/target/thumbv7em-none-eabihf/release/deps/libaspeed_ddk-ba190f65fcc992d2.rlib(aspeed_ddk-ba190f65fcc992d2.aspeed_ddk.609ead220c3d04df-cgu.11.rcgu.o):(.rodata..Lanon.ff79b93049ee86ddbba6f65c5ff4b42f.4)
    dfb3     dfb3       11     1         /home/ferrite/rusty1968/initiative/aspeed-rust/target/thumbv7em-none-eabihf/release/deps/libaspeed_ddk-ba190f65fcc992d2.rlib(aspeed_ddk-ba190f65fcc992d2.aspeed_ddk.609ead220c3d04df-cgu.11.rcgu.o):(.rodata..Lanon.ff79b93049ee86ddbba6f65c5ff4b42f.5)
    dfc4     dfc4        f     1         /home/ferrite/rusty1968/initiative/aspeed-rust/target/thumbv7em-none-eabihf/release/deps/libaspeed_ddk-ba190f65fcc992d2.rlib(aspeed_ddk-ba190f65fcc992d2.aspeed_ddk.609ead220c3d04df-cgu.11.rcgu.o):(.rodata..Lanon.ff79b93049ee86ddbba6f65c5ff4b42f.7)
    dfd3     dfd3       11     1         /home/ferrite/rusty1968/initiative/aspeed-rust/target/thumbv7em-none-eabihf/release/deps/libaspeed_ddk-ba190f65fcc992d2.rlib(aspeed_ddk-ba190f65fcc992d2.aspeed_ddk.609ead220c3d04df-cgu.11.rcgu.o):(.rodata..Lanon.ff79b93049ee86ddbba6f65c5ff4b42f.8)
    dfe4     dfe4        e     1         /home/ferrite/rusty1968/initiative/aspeed-rust/target/thumbv7em-none-eabihf/release/deps/libaspeed_ddk-ba190f65fcc992d2.rlib(aspeed_ddk-ba190f65fcc992d2.aspeed_ddk.609ead220c3d04df-cgu.11.rcgu.o):(.rodata..Lanon.ff79b93049ee86ddbba6f65c5ff4b42f.10)
    dff4     dff4       2c     4         /home/ferrite/rusty1968/initiative/aspeed-rust/target/thumbv7em-none-eabihf/release/deps/libaspeed_ddk-ba190f65fcc992d2.rlib(aspeed_ddk-ba190f65fcc992d2.aspeed_ddk.609ead220c3d04df-cgu.11.rcgu.o):(.rodata..Lswitch.table._ZN42_$LT$$RF$T$u20$as$u20$core..fmt..Debug$GT$3fmt17h22e0fd88f8c0a731E)
    dff4     dff4       2c     1                 .Lswitch.table._ZN42_$LT$$RF$T$u20$as$u20$core..fmt..Debug$GT$3fmt17h22e0fd88f8c0a731E
    e020     e020       2c     4         /home/ferrite/rusty1968/initiative/aspeed-rust/target/thumbv7em-none-eabihf/release/deps/libaspeed_ddk-ba190f65fcc992d2.rlib(aspeed_ddk-ba190f65fcc992d2.aspeed_ddk.609ead220c3d04df-cgu.11.rcgu.o):(.rodata..Lswitch.table._ZN42_$LT$$RF$T$u20$as$u20$core..fmt..Debug$GT$3fmt17h22e0fd88f8c0a731E.3)
    e020     e020       2c     1                 .Lswitch.table._ZN42_$LT$$RF$T$u20$as$u20$core..fmt..Debug$GT$3fmt17h22e0fd88f8c0a731E.3
    e04c     e04c       12     1         /home/ferrite/rusty1968/initiative/aspeed-rust/target/thumbv7em-none-eabihf/release/deps/libaspeed_ddk-ba190f65fcc992d2.rlib(aspeed_ddk-ba190f65fcc992d2.aspeed_ddk.609ead220c3d04df-cgu.12.rcgu.o):(.rodata..Lanon.b3da754d1fed72a9e93cb867e2a4980f.0)
    e05e     e05e       14     1         /home/ferrite/rusty1968/initiative/aspeed-rust/target/thumbv7em-none-eabihf/release/deps/libaspeed_ddk-ba190f65fcc992d2.rlib(aspeed_ddk-ba190f65fcc992d2.aspeed_ddk.609ead220c3d04df-cgu.12.rcgu.o):(.rodata..Lanon.b3da754d1fed72a9e93cb867e2a4980f.1)
    e072     e072       17     1         /home/ferrite/rusty1968/initiative/aspeed-rust/target/thumbv7em-none-eabihf/release/deps/libaspeed_ddk-ba190f65fcc992d2.rlib(aspeed_ddk-ba190f65fcc992d2.aspeed_ddk.609ead220c3d04df-cgu.12.rcgu.o):(.rodata..Lanon.b3da754d1fed72a9e93cb867e2a4980f.2)
    e089     e089       13     1         /home/ferrite/rusty1968/initiative/aspeed-rust/target/thumbv7em-none-eabihf/release/deps/libaspeed_ddk-ba190f65fcc992d2.rlib(aspeed_ddk-ba190f65fcc992d2.aspeed_ddk.609ead220c3d04df-cgu.12.rcgu.o):(.rodata..Lanon.b3da754d1fed72a9e93cb867e2a4980f.3)
    e09c     e09c        b     1         /home/ferrite/rusty1968/initiative/aspeed-rust/target/thumbv7em-none-eabihf/release/deps/libaspeed_ddk-ba190f65fcc992d2.rlib(aspeed_ddk-ba190f65fcc992d2.aspeed_ddk.609ead220c3d04df-cgu.12.rcgu.o):(.rodata..Lanon.b3da754d1fed72a9e93cb867e2a4980f.4)
    e0a7     e0a7       11     1         /home/ferrite/rusty1968/initiative/aspeed-rust/target/thumbv7em-none-eabihf/release/deps/libaspeed_ddk-ba190f65fcc992d2.rlib(aspeed_ddk-ba190f65fcc992d2.aspeed_ddk.609ead220c3d04df-cgu.12.rcgu.o):(.rodata..Lanon.b3da754d1fed72a9e93cb867e2a4980f.5)
    e0b8     e0b8        f     1         /home/ferrite/rusty1968/initiative/aspeed-rust/target/thumbv7em-none-eabihf/release/deps/libaspeed_ddk-ba190f65fcc992d2.rlib(aspeed_ddk-ba190f65fcc992d2.aspeed_ddk.609ead220c3d04df-cgu.12.rcgu.o):(.rodata..Lanon.b3da754d1fed72a9e93cb867e2a4980f.7)
    e0c7     e0c7       11     1         /home/ferrite/rusty1968/initiative/aspeed-rust/target/thumbv7em-none-eabihf/release/deps/libaspeed_ddk-ba190f65fcc992d2.rlib(aspeed_ddk-ba190f65fcc992d2.aspeed_ddk.609ead220c3d04df-cgu.12.rcgu.o):(.rodata..Lanon.b3da754d1fed72a9e93cb867e2a4980f.8)
    e0d8     e0d8        e     1         /home/ferrite/rusty1968/initiative/aspeed-rust/target/thumbv7em-none-eabihf/release/deps/libaspeed_ddk-ba190f65fcc992d2.rlib(aspeed_ddk-ba190f65fcc992d2.aspeed_ddk.609ead220c3d04df-cgu.12.rcgu.o):(.rodata..Lanon.b3da754d1fed72a9e93cb867e2a4980f.10)
    e0e8     e0e8       18     4         /home/ferrite/rusty1968/initiative/aspeed-rust/target/thumbv7em-none-eabihf/release/deps/libaspeed_ddk-ba190f65fcc992d2.rlib(aspeed_ddk-ba190f65fcc992d2.aspeed_ddk.609ead220c3d04df-cgu.12.rcgu.o):(.rodata..Lanon.b3da754d1fed72a9e93cb867e2a4980f.11)
    e0e8     e0e8       18     1                 .Lanon.b3da754d1fed72a9e93cb867e2a4980f.11
    e100     e100        b     1         /home/ferrite/rusty1968/initiative/aspeed-rust/target/thumbv7em-none-eabihf/release/deps/libaspeed_ddk-ba190f65fcc992d2.rlib(aspeed_ddk-ba190f65fcc992d2.aspeed_ddk.609ead220c3d04df-cgu.12.rcgu.o):(.rodata.anon.b3da754d1fed72a9e93cb867e2a4980f.13.llvm.17310368166048120392)
    e100     e100        b     1                 anon.b3da754d1fed72a9e93cb867e2a4980f.13.llvm.17310368166048120392
    e10c     e10c       10     4         /home/ferrite/rusty1968/initiative/aspeed-rust/target/thumbv7em-none-eabihf/release/deps/libaspeed_ddk-ba190f65fcc992d2.rlib(aspeed_ddk-ba190f65fcc992d2.aspeed_ddk.609ead220c3d04df-cgu.12.rcgu.o):(.rodata.anon.b3da754d1fed72a9e93cb867e2a4980f.14.llvm.17310368166048120392)
    e10c     e10c       10     1                 anon.b3da754d1fed72a9e93cb867e2a4980f.14.llvm.17310368166048120392
    e11c     e11c       10     4         /home/ferrite/rusty1968/initiative/aspeed-rust/target/thumbv7em-none-eabihf/release/deps/libaspeed_ddk-ba190f65fcc992d2.rlib(aspeed_ddk-ba190f65fcc992d2.aspeed_ddk.609ead220c3d04df-cgu.12.rcgu.o):(.rodata.anon.b3da754d1fed72a9e93cb867e2a4980f.15.llvm.17310368166048120392)
    e11c     e11c       10     1                 anon.b3da754d1fed72a9e93cb867e2a4980f.15.llvm.17310368166048120392
    e12c     e12c       10     4         /home/ferrite/rusty1968/initiative/aspeed-rust/target/thumbv7em-none-eabihf/release/deps/libaspeed_ddk-ba190f65fcc992d2.rlib(aspeed_ddk-ba190f65fcc992d2.aspeed_ddk.609ead220c3d04df-cgu.12.rcgu.o):(.rodata.anon.b3da754d1fed72a9e93cb867e2a4980f.16.llvm.17310368166048120392)
    e12c     e12c       10     1                 anon.b3da754d1fed72a9e93cb867e2a4980f.16.llvm.17310368166048120392
    e13c     e13c       10     4         /home/ferrite/rusty1968/initiative/aspeed-rust/target/thumbv7em-none-eabihf/release/deps/libaspeed_ddk-ba190f65fcc992d2.rlib(aspeed_ddk-ba190f65fcc992d2.aspeed_ddk.609ead220c3d04df-cgu.12.rcgu.o):(.rodata.anon.b3da754d1fed72a9e93cb867e2a4980f.18.llvm.17310368166048120392)
    e13c     e13c       10     1                 anon.b3da754d1fed72a9e93cb867e2a4980f.18.llvm.17310368166048120392
    e14c     e14c       10     4         /home/ferrite/rusty1968/initiative/aspeed-rust/target/thumbv7em-none-eabihf/release/deps/libaspeed_ddk-ba190f65fcc992d2.rlib(aspeed_ddk-ba190f65fcc992d2.aspeed_ddk.609ead220c3d04df-cgu.12.rcgu.o):(.rodata.anon.b3da754d1fed72a9e93cb867e2a4980f.20.llvm.17310368166048120392)
    e14c     e14c       10     1                 anon.b3da754d1fed72a9e93cb867e2a4980f.20.llvm.17310368166048120392
    e15c     e15c       2c     4         /home/ferrite/rusty1968/initiative/aspeed-rust/target/thumbv7em-none-eabihf/release/deps/libaspeed_ddk-ba190f65fcc992d2.rlib(aspeed_ddk-ba190f65fcc992d2.aspeed_ddk.609ead220c3d04df-cgu.12.rcgu.o):(.rodata..Lswitch.table._ZN42_$LT$$RF$T$u20$as$u20$core..fmt..Debug$GT$3fmt17h7b7f83ef61c6a257E)
    e15c     e15c       2c     1                 .Lswitch.table._ZN42_$LT$$RF$T$u20$as$u20$core..fmt..Debug$GT$3fmt17h7b7f83ef61c6a257E
    e188     e188       2c     4         /home/ferrite/rusty1968/initiative/aspeed-rust/target/thumbv7em-none-eabihf/release/deps/libaspeed_ddk-ba190f65fcc992d2.rlib(aspeed_ddk-ba190f65fcc992d2.aspeed_ddk.609ead220c3d04df-cgu.12.rcgu.o):(.rodata..Lswitch.table._ZN42_$LT$$RF$T$u20$as$u20$core..fmt..Debug$GT$3fmt17h7b7f83ef61c6a257E.27)
    e188     e188       2c     1                 .Lswitch.table._ZN42_$LT$$RF$T$u20$as$u20$core..fmt..Debug$GT$3fmt17h7b7f83ef61c6a257E.27
    e1b4     e1b4       10     4         /home/ferrite/rusty1968/initiative/aspeed-rust/target/thumbv7em-none-eabihf/release/deps/libaspeed_ddk-ba190f65fcc992d2.rlib(aspeed_ddk-ba190f65fcc992d2.aspeed_ddk.609ead220c3d04df-cgu.14.rcgu.o):(.rodata..Lanon.0b5c34f48623b5e3a4cb5ef35b1d5aba.1)
    e1b4     e1b4       10     1                 .Lanon.0b5c34f48623b5e3a4cb5ef35b1d5aba.1
    e1c4     e1c4        5     1         /home/ferrite/rusty1968/initiative/aspeed-rust/target/thumbv7em-none-eabihf/release/deps/libaspeed_ddk-ba190f65fcc992d2.rlib(aspeed_ddk-ba190f65fcc992d2.aspeed_ddk.609ead220c3d04df-cgu.14.rcgu.o):(.rodata..Lanon.0b5c34f48623b5e3a4cb5ef35b1d5aba.2)
    e1c4     e1c4        5     1                 .Lanon.0b5c34f48623b5e3a4cb5ef35b1d5aba.2
    e1c9     e1c9        7     1         /home/ferrite/rusty1968/initiative/aspeed-rust/target/thumbv7em-none-eabihf/release/deps/libaspeed_ddk-ba190f65fcc992d2.rlib(aspeed_ddk-ba190f65fcc992d2.aspeed_ddk.609ead220c3d04df-cgu.14.rcgu.o):(.rodata..Lanon.0b5c34f48623b5e3a4cb5ef35b1d5aba.3)
    e1d0     e1d0        7     1         /home/ferrite/rusty1968/initiative/aspeed-rust/target/thumbv7em-none-eabihf/release/deps/libaspeed_ddk-ba190f65fcc992d2.rlib(aspeed_ddk-ba190f65fcc992d2.aspeed_ddk.609ead220c3d04df-cgu.14.rcgu.o):(.rodata..Lanon.0b5c34f48623b5e3a4cb5ef35b1d5aba.5)
    e1d7     e1d7        1     1         /home/ferrite/rusty1968/initiative/aspeed-rust/target/thumbv7em-none-eabihf/release/deps/libaspeed_ddk-ba190f65fcc992d2.rlib(aspeed_ddk-ba190f65fcc992d2.aspeed_ddk.609ead220c3d04df-cgu.14.rcgu.o):(.rodata..Lanon.0b5c34f48623b5e3a4cb5ef35b1d5aba.6)
    e1d8     e1d8        8     4         /home/ferrite/rusty1968/initiative/aspeed-rust/target/thumbv7em-none-eabihf/release/deps/libaspeed_ddk-ba190f65fcc992d2.rlib(aspeed_ddk-ba190f65fcc992d2.aspeed_ddk.609ead220c3d04df-cgu.14.rcgu.o):(.rodata..Lanon.0b5c34f48623b5e3a4cb5ef35b1d5aba.7)
    e1d8     e1d8        8     1                 .Lanon.0b5c34f48623b5e3a4cb5ef35b1d5aba.7
    e1e0     e1e0       10     4         /home/ferrite/rusty1968/initiative/aspeed-rust/target/thumbv7em-none-eabihf/release/deps/libaspeed_ddk-ba190f65fcc992d2.rlib(aspeed_ddk-ba190f65fcc992d2.aspeed_ddk.609ead220c3d04df-cgu.14.rcgu.o):(.rodata..Lanon.0b5c34f48623b5e3a4cb5ef35b1d5aba.8)
    e1e0     e1e0       10     1                 .Lanon.0b5c34f48623b5e3a4cb5ef35b1d5aba.8
    e1f0     e1f0       2b     1         /home/ferrite/rusty1968/initiative/aspeed-rust/target/thumbv7em-none-eabihf/release/deps/libaspeed_ddk-ba190f65fcc992d2.rlib(aspeed_ddk-ba190f65fcc992d2.aspeed_ddk.609ead220c3d04df-cgu.14.rcgu.o):(.rodata..Lanon.0b5c34f48623b5e3a4cb5ef35b1d5aba.9)
    e1f0     e1f0       2b     1                 .Lanon.0b5c34f48623b5e3a4cb5ef35b1d5aba.9
    e21b     e21b       21     1         /home/ferrite/rusty1968/initiative/aspeed-rust/target/thumbv7em-none-eabihf/release/deps/libaspeed_ddk-ba190f65fcc992d2.rlib(aspeed_ddk-ba190f65fcc992d2.aspeed_ddk.609ead220c3d04df-cgu.14.rcgu.o):(.rodata..Lanon.0b5c34f48623b5e3a4cb5ef35b1d5aba.10)
    e23c     e23c       10     4         /home/ferrite/rusty1968/initiative/aspeed-rust/target/thumbv7em-none-eabihf/release/deps/libaspeed_ddk-ba190f65fcc992d2.rlib(aspeed_ddk-ba190f65fcc992d2.aspeed_ddk.609ead220c3d04df-cgu.14.rcgu.o):(.rodata..Lanon.0b5c34f48623b5e3a4cb5ef35b1d5aba.11)
    e23c     e23c       10     1                 .Lanon.0b5c34f48623b5e3a4cb5ef35b1d5aba.11
    e24c     e24c        2     1         /home/ferrite/rusty1968/initiative/aspeed-rust/target/thumbv7em-none-eabihf/release/deps/libaspeed_ddk-ba190f65fcc992d2.rlib(aspeed_ddk-ba190f65fcc992d2.aspeed_ddk.609ead220c3d04df-cgu.14.rcgu.o):(.rodata..Lanon.0b5c34f48623b5e3a4cb5ef35b1d5aba.12)
    e250     e250        8     4         /home/ferrite/rusty1968/initiative/aspeed-rust/target/thumbv7em-none-eabihf/release/deps/libaspeed_ddk-ba190f65fcc992d2.rlib(aspeed_ddk-ba190f65fcc992d2.aspeed_ddk.609ead220c3d04df-cgu.14.rcgu.o):(.rodata..Lanon.0b5c34f48623b5e3a4cb5ef35b1d5aba.13)
    e250     e250        8     1                 .Lanon.0b5c34f48623b5e3a4cb5ef35b1d5aba.13
    e258     e258       10     4         /home/ferrite/rusty1968/initiative/aspeed-rust/target/thumbv7em-none-eabihf/release/deps/libaspeed_ddk-ba190f65fcc992d2.rlib(aspeed_ddk-ba190f65fcc992d2.aspeed_ddk.609ead220c3d04df-cgu.14.rcgu.o):(.rodata..Lanon.0b5c34f48623b5e3a4cb5ef35b1d5aba.14)
    e258     e258       10     1                 .Lanon.0b5c34f48623b5e3a4cb5ef35b1d5aba.14
    e268     e268        1     1         /home/ferrite/rusty1968/initiative/aspeed-rust/target/thumbv7em-none-eabihf/release/deps/libaspeed_ddk-ba190f65fcc992d2.rlib(aspeed_ddk-ba190f65fcc992d2.aspeed_ddk.609ead220c3d04df-cgu.14.rcgu.o):(.rodata..Lanon.0b5c34f48623b5e3a4cb5ef35b1d5aba.15)
    e26c     e26c        8     4         /home/ferrite/rusty1968/initiative/aspeed-rust/target/thumbv7em-none-eabihf/release/deps/libaspeed_ddk-ba190f65fcc992d2.rlib(aspeed_ddk-ba190f65fcc992d2.aspeed_ddk.609ead220c3d04df-cgu.14.rcgu.o):(.rodata..Lanon.0b5c34f48623b5e3a4cb5ef35b1d5aba.16)
    e26c     e26c        8     1                 .Lanon.0b5c34f48623b5e3a4cb5ef35b1d5aba.16
    e274     e274       10     4         /home/ferrite/rusty1968/initiative/aspeed-rust/target/thumbv7em-none-eabihf/release/deps/libaspeed_ddk-ba190f65fcc992d2.rlib(aspeed_ddk-ba190f65fcc992d2.aspeed_ddk.609ead220c3d04df-cgu.14.rcgu.o):(.rodata..Lanon.0b5c34f48623b5e3a4cb5ef35b1d5aba.18)
    e274     e274       10     1                 .Lanon.0b5c34f48623b5e3a4cb5ef35b1d5aba.18
    e284     e284       10     4         /home/ferrite/rusty1968/initiative/aspeed-rust/target/thumbv7em-none-eabihf/release/deps/libaspeed_ddk-ba190f65fcc992d2.rlib(aspeed_ddk-ba190f65fcc992d2.aspeed_ddk.609ead220c3d04df-cgu.14.rcgu.o):(.rodata..Lanon.0b5c34f48623b5e3a4cb5ef35b1d5aba.19)
    e284     e284       10     1                 .Lanon.0b5c34f48623b5e3a4cb5ef35b1d5aba.19
    e294     e294        5     1         /home/ferrite/rusty1968/initiative/aspeed-rust/target/thumbv7em-none-eabihf/release/deps/libaspeed_ddk-ba190f65fcc992d2.rlib(aspeed_ddk-ba190f65fcc992d2.aspeed_ddk.609ead220c3d04df-cgu.14.rcgu.o):(.rodata..Lanon.0b5c34f48623b5e3a4cb5ef35b1d5aba.20)
    e299     e299        3     1         /home/ferrite/rusty1968/initiative/aspeed-rust/target/thumbv7em-none-eabihf/release/deps/libaspeed_ddk-ba190f65fcc992d2.rlib(aspeed_ddk-ba190f65fcc992d2.aspeed_ddk.609ead220c3d04df-cgu.14.rcgu.o):(.rodata..Lanon.0b5c34f48623b5e3a4cb5ef35b1d5aba.21)
    e29c     e29c       18     4         /home/ferrite/rusty1968/initiative/aspeed-rust/target/thumbv7em-none-eabihf/release/deps/libaspeed_ddk-ba190f65fcc992d2.rlib(aspeed_ddk-ba190f65fcc992d2.aspeed_ddk.609ead220c3d04df-cgu.14.rcgu.o):(.rodata..Lanon.0b5c34f48623b5e3a4cb5ef35b1d5aba.22)
    e29c     e29c       18     1                 .Lanon.0b5c34f48623b5e3a4cb5ef35b1d5aba.22
    e2b4     e2b4       10     4         /home/ferrite/rusty1968/initiative/aspeed-rust/target/thumbv7em-none-eabihf/release/deps/libaspeed_ddk-ba190f65fcc992d2.rlib(aspeed_ddk-ba190f65fcc992d2.aspeed_ddk.609ead220c3d04df-cgu.14.rcgu.o):(.rodata..Lanon.0b5c34f48623b5e3a4cb5ef35b1d5aba.23)
    e2b4     e2b4       10     1                 .Lanon.0b5c34f48623b5e3a4cb5ef35b1d5aba.23
    e2c4     e2c4        5     1         /home/ferrite/rusty1968/initiative/aspeed-rust/target/thumbv7em-none-eabihf/release/deps/libaspeed_ddk-ba190f65fcc992d2.rlib(aspeed_ddk-ba190f65fcc992d2.aspeed_ddk.609ead220c3d04df-cgu.14.rcgu.o):(.rodata..Lanon.0b5c34f48623b5e3a4cb5ef35b1d5aba.24)
    e2cc     e2cc       10     4         /home/ferrite/rusty1968/initiative/aspeed-rust/target/thumbv7em-none-eabihf/release/deps/libaspeed_ddk-ba190f65fcc992d2.rlib(aspeed_ddk-ba190f65fcc992d2.aspeed_ddk.609ead220c3d04df-cgu.14.rcgu.o):(.rodata..Lanon.0b5c34f48623b5e3a4cb5ef35b1d5aba.25)
    e2cc     e2cc       10     1                 .Lanon.0b5c34f48623b5e3a4cb5ef35b1d5aba.25
    e2dc     e2dc        3     1         /home/ferrite/rusty1968/initiative/aspeed-rust/target/thumbv7em-none-eabihf/release/deps/libaspeed_ddk-ba190f65fcc992d2.rlib(aspeed_ddk-ba190f65fcc992d2.aspeed_ddk.609ead220c3d04df-cgu.14.rcgu.o):(.rodata..Lanon.0b5c34f48623b5e3a4cb5ef35b1d5aba.26)
    e2e0     e2e0        8     4         /home/ferrite/rusty1968/initiative/aspeed-rust/target/thumbv7em-none-eabihf/release/deps/libaspeed_ddk-ba190f65fcc992d2.rlib(aspeed_ddk-ba190f65fcc992d2.aspeed_ddk.609ead220c3d04df-cgu.14.rcgu.o):(.rodata..Lanon.0b5c34f48623b5e3a4cb5ef35b1d5aba.27)
    e2e0     e2e0        8     1                 .Lanon.0b5c34f48623b5e3a4cb5ef35b1d5aba.27
    e2e8     e2e8       10     4         /home/ferrite/rusty1968/initiative/aspeed-rust/target/thumbv7em-none-eabihf/release/deps/libaspeed_ddk-ba190f65fcc992d2.rlib(aspeed_ddk-ba190f65fcc992d2.aspeed_ddk.609ead220c3d04df-cgu.14.rcgu.o):(.rodata..Lanon.0b5c34f48623b5e3a4cb5ef35b1d5aba.28)
    e2e8     e2e8       10     1                 .Lanon.0b5c34f48623b5e3a4cb5ef35b1d5aba.28
    e2f8     e2f8        2     1         /home/ferrite/rusty1968/initiative/aspeed-rust/target/thumbv7em-none-eabihf/release/deps/libaspeed_ddk-ba190f65fcc992d2.rlib(aspeed_ddk-ba190f65fcc992d2.aspeed_ddk.609ead220c3d04df-cgu.14.rcgu.o):(.rodata..Lanon.0b5c34f48623b5e3a4cb5ef35b1d5aba.29)
    e2fc     e2fc        8     4         /home/ferrite/rusty1968/initiative/aspeed-rust/target/thumbv7em-none-eabihf/release/deps/libaspeed_ddk-ba190f65fcc992d2.rlib(aspeed_ddk-ba190f65fcc992d2.aspeed_ddk.609ead220c3d04df-cgu.14.rcgu.o):(.rodata..Lanon.0b5c34f48623b5e3a4cb5ef35b1d5aba.30)
    e2fc     e2fc        8     1                 .Lanon.0b5c34f48623b5e3a4cb5ef35b1d5aba.30
    e304     e304        2     1         /home/ferrite/rusty1968/initiative/aspeed-rust/target/thumbv7em-none-eabihf/release/deps/libaspeed_ddk-ba190f65fcc992d2.rlib(aspeed_ddk-ba190f65fcc992d2.aspeed_ddk.609ead220c3d04df-cgu.14.rcgu.o):(.rodata..Lanon.0b5c34f48623b5e3a4cb5ef35b1d5aba.31)
    e308     e308        8     4         /home/ferrite/rusty1968/initiative/aspeed-rust/target/thumbv7em-none-eabihf/release/deps/libaspeed_ddk-ba190f65fcc992d2.rlib(aspeed_ddk-ba190f65fcc992d2.aspeed_ddk.609ead220c3d04df-cgu.14.rcgu.o):(.rodata..Lanon.0b5c34f48623b5e3a4cb5ef35b1d5aba.32)
    e308     e308        8     1                 .Lanon.0b5c34f48623b5e3a4cb5ef35b1d5aba.32
    e310     e310       10     4         /home/ferrite/rusty1968/initiative/aspeed-rust/target/thumbv7em-none-eabihf/release/deps/libaspeed_ddk-ba190f65fcc992d2.rlib(aspeed_ddk-ba190f65fcc992d2.aspeed_ddk.609ead220c3d04df-cgu.14.rcgu.o):(.rodata..Lanon.0b5c34f48623b5e3a4cb5ef35b1d5aba.33)
    e310     e310       10     1                 .Lanon.0b5c34f48623b5e3a4cb5ef35b1d5aba.33
    e320     e320       10     4         /home/ferrite/rusty1968/initiative/aspeed-rust/target/thumbv7em-none-eabihf/release/deps/libaspeed_ddk-ba190f65fcc992d2.rlib(aspeed_ddk-ba190f65fcc992d2.aspeed_ddk.609ead220c3d04df-cgu.14.rcgu.o):(.rodata..Lanon.0b5c34f48623b5e3a4cb5ef35b1d5aba.34)
    e320     e320       10     1                 .Lanon.0b5c34f48623b5e3a4cb5ef35b1d5aba.34
    e330     e330       10     4         /home/ferrite/rusty1968/initiative/aspeed-rust/target/thumbv7em-none-eabihf/release/deps/libaspeed_ddk-ba190f65fcc992d2.rlib(aspeed_ddk-ba190f65fcc992d2.aspeed_ddk.609ead220c3d04df-cgu.14.rcgu.o):(.rodata..Lanon.0b5c34f48623b5e3a4cb5ef35b1d5aba.35)
    e330     e330       10     1                 .Lanon.0b5c34f48623b5e3a4cb5ef35b1d5aba.35
    e340     e340       18     1         /home/ferrite/rusty1968/initiative/aspeed-rust/target/thumbv7em-none-eabihf/release/deps/libaspeed_ddk-ba190f65fcc992d2.rlib(aspeed_ddk-ba190f65fcc992d2.aspeed_ddk.609ead220c3d04df-cgu.14.rcgu.o):(.rodata..Lanon.0b5c34f48623b5e3a4cb5ef35b1d5aba.37)
    e340     e340       18     1                 .Lanon.0b5c34f48623b5e3a4cb5ef35b1d5aba.37
    e358     e358        a     1         /home/ferrite/rusty1968/initiative/aspeed-rust/target/thumbv7em-none-eabihf/release/deps/libaspeed_ddk-ba190f65fcc992d2.rlib(aspeed_ddk-ba190f65fcc992d2.aspeed_ddk.609ead220c3d04df-cgu.14.rcgu.o):(.rodata..Lanon.0b5c34f48623b5e3a4cb5ef35b1d5aba.38)
    e364     e364        8     4         /home/ferrite/rusty1968/initiative/aspeed-rust/target/thumbv7em-none-eabihf/release/deps/libaspeed_ddk-ba190f65fcc992d2.rlib(aspeed_ddk-ba190f65fcc992d2.aspeed_ddk.609ead220c3d04df-cgu.14.rcgu.o):(.rodata..Lanon.0b5c34f48623b5e3a4cb5ef35b1d5aba.39)
    e364     e364        8     1                 .Lanon.0b5c34f48623b5e3a4cb5ef35b1d5aba.39
    e36c     e36c       40     1         /home/ferrite/rusty1968/initiative/aspeed-rust/target/thumbv7em-none-eabihf/release/deps/libaspeed_ddk-ba190f65fcc992d2.rlib(aspeed_ddk-ba190f65fcc992d2.aspeed_ddk.609ead220c3d04df-cgu.14.rcgu.o):(.rodata..Lanon.0b5c34f48623b5e3a4cb5ef35b1d5aba.40)
    e36c     e36c       40     1                 .Lanon.0b5c34f48623b5e3a4cb5ef35b1d5aba.40
    e3ac     e3ac       30     1         /home/ferrite/rusty1968/initiative/aspeed-rust/target/thumbv7em-none-eabihf/release/deps/libaspeed_ddk-ba190f65fcc992d2.rlib(aspeed_ddk-ba190f65fcc992d2.aspeed_ddk.609ead220c3d04df-cgu.14.rcgu.o):(.rodata..Lanon.0b5c34f48623b5e3a4cb5ef35b1d5aba.41)
    e3ac     e3ac       30     1                 .Lanon.0b5c34f48623b5e3a4cb5ef35b1d5aba.41
    e3dc     e3dc        f     1         /home/ferrite/rusty1968/initiative/aspeed-rust/target/thumbv7em-none-eabihf/release/deps/libaspeed_ddk-ba190f65fcc992d2.rlib(aspeed_ddk-ba190f65fcc992d2.aspeed_ddk.609ead220c3d04df-cgu.14.rcgu.o):(.rodata..Lanon.0b5c34f48623b5e3a4cb5ef35b1d5aba.43)
    e3ec     e3ec       10     4         /home/ferrite/rusty1968/initiative/aspeed-rust/target/thumbv7em-none-eabihf/release/deps/libaspeed_ddk-ba190f65fcc992d2.rlib(aspeed_ddk-ba190f65fcc992d2.aspeed_ddk.609ead220c3d04df-cgu.14.rcgu.o):(.rodata..Lanon.0b5c34f48623b5e3a4cb5ef35b1d5aba.44)
    e3ec     e3ec       10     1                 .Lanon.0b5c34f48623b5e3a4cb5ef35b1d5aba.44
    e3fc     e3fc        a     1         /home/ferrite/rusty1968/initiative/aspeed-rust/target/thumbv7em-none-eabihf/release/deps/libaspeed_ddk-ba190f65fcc992d2.rlib(aspeed_ddk-ba190f65fcc992d2.aspeed_ddk.609ead220c3d04df-cgu.14.rcgu.o):(.rodata..Lanon.0b5c34f48623b5e3a4cb5ef35b1d5aba.45)
    e408     e408        8     4         /home/ferrite/rusty1968/initiative/aspeed-rust/target/thumbv7em-none-eabihf/release/deps/libaspeed_ddk-ba190f65fcc992d2.rlib(aspeed_ddk-ba190f65fcc992d2.aspeed_ddk.609ead220c3d04df-cgu.14.rcgu.o):(.rodata..Lanon.0b5c34f48623b5e3a4cb5ef35b1d5aba.46)
    e408     e408        8     1                 .Lanon.0b5c34f48623b5e3a4cb5ef35b1d5aba.46
    e410     e410        5     1         /home/ferrite/rusty1968/initiative/aspeed-rust/target/thumbv7em-none-eabihf/release/deps/libaspeed_ddk-ba190f65fcc992d2.rlib(aspeed_ddk-ba190f65fcc992d2.aspeed_ddk.609ead220c3d04df-cgu.14.rcgu.o):(.rodata..Lanon.0b5c34f48623b5e3a4cb5ef35b1d5aba.47)
    e418     e418        8     4         /home/ferrite/rusty1968/initiative/aspeed-rust/target/thumbv7em-none-eabihf/release/deps/libaspeed_ddk-ba190f65fcc992d2.rlib(aspeed_ddk-ba190f65fcc992d2.aspeed_ddk.609ead220c3d04df-cgu.14.rcgu.o):(.rodata..Lanon.0b5c34f48623b5e3a4cb5ef35b1d5aba.48)
    e418     e418        8     1                 .Lanon.0b5c34f48623b5e3a4cb5ef35b1d5aba.48
    e420     e420       10     4         /home/ferrite/rusty1968/initiative/aspeed-rust/target/thumbv7em-none-eabihf/release/deps/libaspeed_ddk-ba190f65fcc992d2.rlib(aspeed_ddk-ba190f65fcc992d2.aspeed_ddk.609ead220c3d04df-cgu.14.rcgu.o):(.rodata..Lanon.0b5c34f48623b5e3a4cb5ef35b1d5aba.49)
    e420     e420       10     1                 .Lanon.0b5c34f48623b5e3a4cb5ef35b1d5aba.49
    e430     e430       10     4         /home/ferrite/rusty1968/initiative/aspeed-rust/target/thumbv7em-none-eabihf/release/deps/libaspeed_ddk-ba190f65fcc992d2.rlib(aspeed_ddk-ba190f65fcc992d2.aspeed_ddk.609ead220c3d04df-cgu.14.rcgu.o):(.rodata..Lanon.0b5c34f48623b5e3a4cb5ef35b1d5aba.50)
    e430     e430       10     1                 .Lanon.0b5c34f48623b5e3a4cb5ef35b1d5aba.50
    e440     e440       10     4         /home/ferrite/rusty1968/initiative/aspeed-rust/target/thumbv7em-none-eabihf/release/deps/libaspeed_ddk-ba190f65fcc992d2.rlib(aspeed_ddk-ba190f65fcc992d2.aspeed_ddk.609ead220c3d04df-cgu.14.rcgu.o):(.rodata..Lanon.0b5c34f48623b5e3a4cb5ef35b1d5aba.51)
    e440     e440       10     1                 .Lanon.0b5c34f48623b5e3a4cb5ef35b1d5aba.51
    e450     e450        f     1         /home/ferrite/rusty1968/initiative/aspeed-rust/target/thumbv7em-none-eabihf/release/deps/libaspeed_ddk-ba190f65fcc992d2.rlib(aspeed_ddk-ba190f65fcc992d2.aspeed_ddk.609ead220c3d04df-cgu.14.rcgu.o):(.rodata..Lanon.0b5c34f48623b5e3a4cb5ef35b1d5aba.52)
    e460     e460       10     4         /home/ferrite/rusty1968/initiative/aspeed-rust/target/thumbv7em-none-eabihf/release/deps/libaspeed_ddk-ba190f65fcc992d2.rlib(aspeed_ddk-ba190f65fcc992d2.aspeed_ddk.609ead220c3d04df-cgu.14.rcgu.o):(.rodata..Lanon.0b5c34f48623b5e3a4cb5ef35b1d5aba.53)
    e460     e460       10     1                 .Lanon.0b5c34f48623b5e3a4cb5ef35b1d5aba.53
    e470     e470       10     4         /home/ferrite/rusty1968/initiative/aspeed-rust/target/thumbv7em-none-eabihf/release/deps/libaspeed_ddk-ba190f65fcc992d2.rlib(aspeed_ddk-ba190f65fcc992d2.aspeed_ddk.609ead220c3d04df-cgu.14.rcgu.o):(.rodata..Lanon.0b5c34f48623b5e3a4cb5ef35b1d5aba.54)
    e470     e470       10     1                 .Lanon.0b5c34f48623b5e3a4cb5ef35b1d5aba.54
    e480     e480       10     4         /home/ferrite/rusty1968/initiative/aspeed-rust/target/thumbv7em-none-eabihf/release/deps/libaspeed_ddk-ba190f65fcc992d2.rlib(aspeed_ddk-ba190f65fcc992d2.aspeed_ddk.609ead220c3d04df-cgu.14.rcgu.o):(.rodata..Lanon.0b5c34f48623b5e3a4cb5ef35b1d5aba.55)
    e480     e480       10     1                 .Lanon.0b5c34f48623b5e3a4cb5ef35b1d5aba.55
    e490     e490       10     4         /home/ferrite/rusty1968/initiative/aspeed-rust/target/thumbv7em-none-eabihf/release/deps/libaspeed_ddk-ba190f65fcc992d2.rlib(aspeed_ddk-ba190f65fcc992d2.aspeed_ddk.609ead220c3d04df-cgu.14.rcgu.o):(.rodata..Lanon.0b5c34f48623b5e3a4cb5ef35b1d5aba.56)
    e490     e490       10     1                 .Lanon.0b5c34f48623b5e3a4cb5ef35b1d5aba.56
    e4a0     e4a0       10     4         /home/ferrite/rusty1968/initiative/aspeed-rust/target/thumbv7em-none-eabihf/release/deps/libaspeed_ddk-ba190f65fcc992d2.rlib(aspeed_ddk-ba190f65fcc992d2.aspeed_ddk.609ead220c3d04df-cgu.14.rcgu.o):(.rodata..Lanon.0b5c34f48623b5e3a4cb5ef35b1d5aba.57)
    e4a0     e4a0       10     1                 .Lanon.0b5c34f48623b5e3a4cb5ef35b1d5aba.57
    e4b0     e4b0       10     4         /home/ferrite/rusty1968/initiative/aspeed-rust/target/thumbv7em-none-eabihf/release/deps/libaspeed_ddk-ba190f65fcc992d2.rlib(aspeed_ddk-ba190f65fcc992d2.aspeed_ddk.609ead220c3d04df-cgu.14.rcgu.o):(.rodata..Lanon.0b5c34f48623b5e3a4cb5ef35b1d5aba.58)
    e4b0     e4b0       10     1                 .Lanon.0b5c34f48623b5e3a4cb5ef35b1d5aba.58
    e4c0     e4c0       18     1         /home/ferrite/rusty1968/initiative/aspeed-rust/target/thumbv7em-none-eabihf/release/deps/libaspeed_ddk-ba190f65fcc992d2.rlib(aspeed_ddk-ba190f65fcc992d2.aspeed_ddk.609ead220c3d04df-cgu.14.rcgu.o):(.rodata..Lanon.0b5c34f48623b5e3a4cb5ef35b1d5aba.59)
    e4c0     e4c0       18     1                 .Lanon.0b5c34f48623b5e3a4cb5ef35b1d5aba.59
    e4d8     e4d8       18     1         /home/ferrite/rusty1968/initiative/aspeed-rust/target/thumbv7em-none-eabihf/release/deps/libaspeed_ddk-ba190f65fcc992d2.rlib(aspeed_ddk-ba190f65fcc992d2.aspeed_ddk.609ead220c3d04df-cgu.14.rcgu.o):(.rodata..Lanon.0b5c34f48623b5e3a4cb5ef35b1d5aba.60)
    e4d8     e4d8       18     1                 .Lanon.0b5c34f48623b5e3a4cb5ef35b1d5aba.60
    e4f0     e4f0       10     4         /home/ferrite/rusty1968/initiative/aspeed-rust/target/thumbv7em-none-eabihf/release/deps/libaspeed_ddk-ba190f65fcc992d2.rlib(aspeed_ddk-ba190f65fcc992d2.aspeed_ddk.609ead220c3d04df-cgu.14.rcgu.o):(.rodata..Lanon.0b5c34f48623b5e3a4cb5ef35b1d5aba.61)
    e4f0     e4f0       10     1                 .Lanon.0b5c34f48623b5e3a4cb5ef35b1d5aba.61
    e500     e500        9     1         /home/ferrite/rusty1968/initiative/aspeed-rust/target/thumbv7em-none-eabihf/release/deps/libaspeed_ddk-ba190f65fcc992d2.rlib(aspeed_ddk-ba190f65fcc992d2.aspeed_ddk.609ead220c3d04df-cgu.14.rcgu.o):(.rodata..Lanon.0b5c34f48623b5e3a4cb5ef35b1d5aba.62)
    e500     e500        9     1                 .Lanon.0b5c34f48623b5e3a4cb5ef35b1d5aba.62
    e50c     e50c        c     4         /home/ferrite/rusty1968/initiative/aspeed-rust/target/thumbv7em-none-eabihf/release/deps/libaspeed_ddk-ba190f65fcc992d2.rlib(aspeed_ddk-ba190f65fcc992d2.aspeed_ddk.609ead220c3d04df-cgu.14.rcgu.o):(.rodata..Lswitch.table._ZN42_$LT$$RF$T$u20$as$u20$core..fmt..Debug$GT$3fmt17h1c044e7ec9425de6E)
    e50c     e50c        c     1                 .Lswitch.table._ZN42_$LT$$RF$T$u20$as$u20$core..fmt..Debug$GT$3fmt17h1c044e7ec9425de6E
    e518     e518        c     4         /home/ferrite/rusty1968/initiative/aspeed-rust/target/thumbv7em-none-eabihf/release/deps/libaspeed_ddk-ba190f65fcc992d2.rlib(aspeed_ddk-ba190f65fcc992d2.aspeed_ddk.609ead220c3d04df-cgu.14.rcgu.o):(.rodata..Lswitch.table._ZN42_$LT$$RF$T$u20$as$u20$core..fmt..Debug$GT$3fmt17h1c044e7ec9425de6E.25)
    e518     e518        c     1                 .Lswitch.table._ZN42_$LT$$RF$T$u20$as$u20$core..fmt..Debug$GT$3fmt17h1c044e7ec9425de6E.25
    e524     e524        2     1         /home/ferrite/rusty1968/initiative/aspeed-rust/target/thumbv7em-none-eabihf/release/deps/libaspeed_ddk-ba190f65fcc992d2.rlib(aspeed_ddk-ba190f65fcc992d2.aspeed_ddk.609ead220c3d04df-cgu.15.rcgu.o):(.rodata..Lanon.d408e0e24f75872748c66222b416f623.0)
    e524     e524        2     1                 .Lanon.d408e0e24f75872748c66222b416f623.0
    e528     e528       10     4         /home/ferrite/rusty1968/initiative/aspeed-rust/target/thumbv7em-none-eabihf/release/deps/libaspeed_ddk-ba190f65fcc992d2.rlib(aspeed_ddk-ba190f65fcc992d2.aspeed_ddk.609ead220c3d04df-cgu.15.rcgu.o):(.rodata..Lanon.d408e0e24f75872748c66222b416f623.2)
    e528     e528       10     1                 .Lanon.d408e0e24f75872748c66222b416f623.2
    e538     e538        5     1         /home/ferrite/rusty1968/initiative/aspeed-rust/target/thumbv7em-none-eabihf/release/deps/libaspeed_ddk-ba190f65fcc992d2.rlib(aspeed_ddk-ba190f65fcc992d2.aspeed_ddk.609ead220c3d04df-cgu.15.rcgu.o):(.rodata..Lanon.d408e0e24f75872748c66222b416f623.3)
    e538     e538        5     1                 .Lanon.d408e0e24f75872748c66222b416f623.3
    e53d     e53d        b     1         /home/ferrite/rusty1968/initiative/aspeed-rust/target/thumbv7em-none-eabihf/release/deps/libaspeed_ddk-ba190f65fcc992d2.rlib(aspeed_ddk-ba190f65fcc992d2.aspeed_ddk.609ead220c3d04df-cgu.15.rcgu.o):(.rodata.anon.d408e0e24f75872748c66222b416f623.7.llvm.4314421828136470776)
    e53d     e53d        b     1                 anon.d408e0e24f75872748c66222b416f623.7.llvm.4314421828136470776
    e548     e548       10     4         /home/ferrite/rusty1968/initiative/aspeed-rust/target/thumbv7em-none-eabihf/release/deps/libaspeed_ddk-ba190f65fcc992d2.rlib(aspeed_ddk-ba190f65fcc992d2.aspeed_ddk.609ead220c3d04df-cgu.15.rcgu.o):(.rodata.anon.d408e0e24f75872748c66222b416f623.8.llvm.4314421828136470776)
    e548     e548       10     1                 anon.d408e0e24f75872748c66222b416f623.8.llvm.4314421828136470776
    e558     e558       10     4         /home/ferrite/rusty1968/initiative/aspeed-rust/target/thumbv7em-none-eabihf/release/deps/libaspeed_ddk-ba190f65fcc992d2.rlib(aspeed_ddk-ba190f65fcc992d2.aspeed_ddk.609ead220c3d04df-cgu.15.rcgu.o):(.rodata.anon.d408e0e24f75872748c66222b416f623.9.llvm.4314421828136470776)
    e558     e558       10     1                 anon.d408e0e24f75872748c66222b416f623.9.llvm.4314421828136470776
    e568     e568       10     4         /home/ferrite/rusty1968/initiative/aspeed-rust/target/thumbv7em-none-eabihf/release/deps/libaspeed_ddk-ba190f65fcc992d2.rlib(aspeed_ddk-ba190f65fcc992d2.aspeed_ddk.609ead220c3d04df-cgu.15.rcgu.o):(.rodata.anon.d408e0e24f75872748c66222b416f623.10.llvm.4314421828136470776)
    e568     e568       10     1                 anon.d408e0e24f75872748c66222b416f623.10.llvm.4314421828136470776
    e578     e578       18     4         /home/ferrite/rusty1968/initiative/aspeed-rust/target/thumbv7em-none-eabihf/release/deps/libaspeed_ddk-ba190f65fcc992d2.rlib(aspeed_ddk-ba190f65fcc992d2.aspeed_ddk.609ead220c3d04df-cgu.15.rcgu.o):(.rodata..Lanon.d408e0e24f75872748c66222b416f623.16)
    e578     e578       18     1                 .Lanon.d408e0e24f75872748c66222b416f623.16
    e590     e590       24     1         /home/ferrite/rusty1968/initiative/aspeed-rust/target/thumbv7em-none-eabihf/release/deps/libaspeed_ddk-ba190f65fcc992d2.rlib(aspeed_ddk-ba190f65fcc992d2.aspeed_ddk.609ead220c3d04df-cgu.15.rcgu.o):(.rodata..Lanon.d408e0e24f75872748c66222b416f623.17)
    e5b4     e5b4        8     4         /home/ferrite/rusty1968/initiative/aspeed-rust/target/thumbv7em-none-eabihf/release/deps/libaspeed_ddk-ba190f65fcc992d2.rlib(aspeed_ddk-ba190f65fcc992d2.aspeed_ddk.609ead220c3d04df-cgu.15.rcgu.o):(.rodata..Lanon.d408e0e24f75872748c66222b416f623.18)
    e5b4     e5b4        8     1                 .Lanon.d408e0e24f75872748c66222b416f623.18
    e5bc     e5bc        e     1         /home/ferrite/rusty1968/initiative/aspeed-rust/target/thumbv7em-none-eabihf/release/deps/libaspeed_ddk-ba190f65fcc992d2.rlib(aspeed_ddk-ba190f65fcc992d2.aspeed_ddk.609ead220c3d04df-cgu.15.rcgu.o):(.rodata..Lanon.d408e0e24f75872748c66222b416f623.21)
    e5ca     e5ca        2     1         /home/ferrite/rusty1968/initiative/aspeed-rust/target/thumbv7em-none-eabihf/release/deps/libaspeed_ddk-ba190f65fcc992d2.rlib(aspeed_ddk-ba190f65fcc992d2.aspeed_ddk.609ead220c3d04df-cgu.15.rcgu.o):(.rodata..Lanon.d408e0e24f75872748c66222b416f623.22)
    e5cc     e5cc       10     4         /home/ferrite/rusty1968/initiative/aspeed-rust/target/thumbv7em-none-eabihf/release/deps/libaspeed_ddk-ba190f65fcc992d2.rlib(aspeed_ddk-ba190f65fcc992d2.aspeed_ddk.609ead220c3d04df-cgu.15.rcgu.o):(.rodata..Lanon.d408e0e24f75872748c66222b416f623.23)
    e5cc     e5cc       10     1                 .Lanon.d408e0e24f75872748c66222b416f623.23
    e5dc     e5dc       10     4         /home/ferrite/rusty1968/initiative/aspeed-rust/target/thumbv7em-none-eabihf/release/deps/libaspeed_ddk-ba190f65fcc992d2.rlib(aspeed_ddk-ba190f65fcc992d2.aspeed_ddk.609ead220c3d04df-cgu.15.rcgu.o):(.rodata..Lanon.d408e0e24f75872748c66222b416f623.24)
    e5dc     e5dc       10     1                 .Lanon.d408e0e24f75872748c66222b416f623.24
    e5ec     e5ec       2b     1         /home/ferrite/rusty1968/initiative/aspeed-rust/target/thumbv7em-none-eabihf/release/deps/libaspeed_ddk-ba190f65fcc992d2.rlib(aspeed_ddk-ba190f65fcc992d2.aspeed_ddk.609ead220c3d04df-cgu.15.rcgu.o):(.rodata..Lanon.d408e0e24f75872748c66222b416f623.25)
    e5ec     e5ec       2b     1                 .Lanon.d408e0e24f75872748c66222b416f623.25
    e618     e618       10     4         /home/ferrite/rusty1968/initiative/aspeed-rust/target/thumbv7em-none-eabihf/release/deps/libaspeed_ddk-ba190f65fcc992d2.rlib(aspeed_ddk-ba190f65fcc992d2.aspeed_ddk.609ead220c3d04df-cgu.15.rcgu.o):(.rodata..Lanon.d408e0e24f75872748c66222b416f623.26)
    e618     e618       10     1                 .Lanon.d408e0e24f75872748c66222b416f623.26
    e628     e628        f     1         /home/ferrite/rusty1968/initiative/aspeed-rust/target/thumbv7em-none-eabihf/release/deps/libaspeed_ddk-ba190f65fcc992d2.rlib(aspeed_ddk-ba190f65fcc992d2.aspeed_ddk.609ead220c3d04df-cgu.15.rcgu.o):(.rodata..Lanon.d408e0e24f75872748c66222b416f623.27)
    e638     e638       10     4         /home/ferrite/rusty1968/initiative/aspeed-rust/target/thumbv7em-none-eabihf/release/deps/libaspeed_ddk-ba190f65fcc992d2.rlib(aspeed_ddk-ba190f65fcc992d2.aspeed_ddk.609ead220c3d04df-cgu.15.rcgu.o):(.rodata..Lanon.d408e0e24f75872748c66222b416f623.28)
    e638     e638       10     1                 .Lanon.d408e0e24f75872748c66222b416f623.28
    e648     e648        d     1         /home/ferrite/rusty1968/initiative/aspeed-rust/target/thumbv7em-none-eabihf/release/deps/libaspeed_ddk-ba190f65fcc992d2.rlib(aspeed_ddk-ba190f65fcc992d2.aspeed_ddk.609ead220c3d04df-cgu.15.rcgu.o):(.rodata..Lanon.d408e0e24f75872748c66222b416f623.29)
    e658     e658       10     4         /home/ferrite/rusty1968/initiative/aspeed-rust/target/thumbv7em-none-eabihf/release/deps/libaspeed_ddk-ba190f65fcc992d2.rlib(aspeed_ddk-ba190f65fcc992d2.aspeed_ddk.609ead220c3d04df-cgu.15.rcgu.o):(.rodata..Lanon.d408e0e24f75872748c66222b416f623.30)
    e658     e658       10     1                 .Lanon.d408e0e24f75872748c66222b416f623.30
    e668     e668       10     4         /home/ferrite/rusty1968/initiative/aspeed-rust/target/thumbv7em-none-eabihf/release/deps/libaspeed_ddk-ba190f65fcc992d2.rlib(aspeed_ddk-ba190f65fcc992d2.aspeed_ddk.609ead220c3d04df-cgu.15.rcgu.o):(.rodata..Lanon.d408e0e24f75872748c66222b416f623.31)
    e668     e668       10     1                 .Lanon.d408e0e24f75872748c66222b416f623.31
    e678     e678        e     1         /home/ferrite/rusty1968/initiative/aspeed-rust/target/thumbv7em-none-eabihf/release/deps/libaspeed_ddk-ba190f65fcc992d2.rlib(aspeed_ddk-ba190f65fcc992d2.aspeed_ddk.609ead220c3d04df-cgu.15.rcgu.o):(.rodata..Lanon.d408e0e24f75872748c66222b416f623.32)
    e688     e688       10     4         /home/ferrite/rusty1968/initiative/aspeed-rust/target/thumbv7em-none-eabihf/release/deps/libaspeed_ddk-ba190f65fcc992d2.rlib(aspeed_ddk-ba190f65fcc992d2.aspeed_ddk.609ead220c3d04df-cgu.15.rcgu.o):(.rodata..Lanon.d408e0e24f75872748c66222b416f623.33)
    e688     e688       10     1                 .Lanon.d408e0e24f75872748c66222b416f623.33
    e698     e698       13     1         /home/ferrite/rusty1968/initiative/aspeed-rust/target/thumbv7em-none-eabihf/release/deps/libaspeed_ddk-ba190f65fcc992d2.rlib(aspeed_ddk-ba190f65fcc992d2.aspeed_ddk.609ead220c3d04df-cgu.15.rcgu.o):(.rodata..Lanon.d408e0e24f75872748c66222b416f623.35)
    e6ac     e6ac       10     4         /home/ferrite/rusty1968/initiative/aspeed-rust/target/thumbv7em-none-eabihf/release/deps/libaspeed_ddk-ba190f65fcc992d2.rlib(aspeed_ddk-ba190f65fcc992d2.aspeed_ddk.609ead220c3d04df-cgu.15.rcgu.o):(.rodata..Lanon.d408e0e24f75872748c66222b416f623.36)
    e6ac     e6ac       10     1                 .Lanon.d408e0e24f75872748c66222b416f623.36
    e6bc     e6bc       10     4         /home/ferrite/rusty1968/initiative/aspeed-rust/target/thumbv7em-none-eabihf/release/deps/libaspeed_ddk-ba190f65fcc992d2.rlib(aspeed_ddk-ba190f65fcc992d2.aspeed_ddk.609ead220c3d04df-cgu.15.rcgu.o):(.rodata..Lanon.d408e0e24f75872748c66222b416f623.37)
    e6bc     e6bc       10     1                 .Lanon.d408e0e24f75872748c66222b416f623.37
    e6cc     e6cc       10     4         /home/ferrite/rusty1968/initiative/aspeed-rust/target/thumbv7em-none-eabihf/release/deps/libaspeed_ddk-ba190f65fcc992d2.rlib(aspeed_ddk-ba190f65fcc992d2.aspeed_ddk.609ead220c3d04df-cgu.15.rcgu.o):(.rodata..Lanon.d408e0e24f75872748c66222b416f623.38)
    e6cc     e6cc       10     1                 .Lanon.d408e0e24f75872748c66222b416f623.38
    e6dc     e6dc       10     4         /home/ferrite/rusty1968/initiative/aspeed-rust/target/thumbv7em-none-eabihf/release/deps/libaspeed_ddk-ba190f65fcc992d2.rlib(aspeed_ddk-ba190f65fcc992d2.aspeed_ddk.609ead220c3d04df-cgu.15.rcgu.o):(.rodata..Lanon.d408e0e24f75872748c66222b416f623.39)
    e6dc     e6dc       10     1                 .Lanon.d408e0e24f75872748c66222b416f623.39
    e6ec     e6ec       10     4         /home/ferrite/rusty1968/initiative/aspeed-rust/target/thumbv7em-none-eabihf/release/deps/libaspeed_ddk-ba190f65fcc992d2.rlib(aspeed_ddk-ba190f65fcc992d2.aspeed_ddk.609ead220c3d04df-cgu.15.rcgu.o):(.rodata..Lanon.d408e0e24f75872748c66222b416f623.40)
    e6ec     e6ec       10     1                 .Lanon.d408e0e24f75872748c66222b416f623.40
    e6fc     e6fc      100     1         /home/ferrite/rusty1968/initiative/aspeed-rust/target/thumbv7em-none-eabihf/release/deps/libaspeed_ddk-ba190f65fcc992d2.rlib(aspeed_ddk-ba190f65fcc992d2.aspeed_ddk.609ead220c3d04df-cgu.15.rcgu.o):(.rodata..Lanon.d408e0e24f75872748c66222b416f623.41)
    e7fc     e7fc      100     1         /home/ferrite/rusty1968/initiative/aspeed-rust/target/thumbv7em-none-eabihf/release/deps/libaspeed_ddk-ba190f65fcc992d2.rlib(aspeed_ddk-ba190f65fcc992d2.aspeed_ddk.609ead220c3d04df-cgu.15.rcgu.o):(.rodata..Lanon.d408e0e24f75872748c66222b416f623.42)
    e8fc     e8fc        3     1         /home/ferrite/rusty1968/initiative/aspeed-rust/target/thumbv7em-none-eabihf/release/deps/libaspeed_ddk-ba190f65fcc992d2.rlib(aspeed_ddk-ba190f65fcc992d2.aspeed_ddk.609ead220c3d04df-cgu.15.rcgu.o):(.rodata..Lanon.d408e0e24f75872748c66222b416f623.43)
    e8ff     e8ff      100     1         /home/ferrite/rusty1968/initiative/aspeed-rust/target/thumbv7em-none-eabihf/release/deps/libaspeed_ddk-ba190f65fcc992d2.rlib(aspeed_ddk-ba190f65fcc992d2.aspeed_ddk.609ead220c3d04df-cgu.15.rcgu.o):(.rodata..Lanon.d408e0e24f75872748c66222b416f623.45)
    e9ff     e9ff      100     1         /home/ferrite/rusty1968/initiative/aspeed-rust/target/thumbv7em-none-eabihf/release/deps/libaspeed_ddk-ba190f65fcc992d2.rlib(aspeed_ddk-ba190f65fcc992d2.aspeed_ddk.609ead220c3d04df-cgu.15.rcgu.o):(.rodata..Lanon.d408e0e24f75872748c66222b416f623.46)
    eaff     eaff      100     1         /home/ferrite/rusty1968/initiative/aspeed-rust/target/thumbv7em-none-eabihf/release/deps/libaspeed_ddk-ba190f65fcc992d2.rlib(aspeed_ddk-ba190f65fcc992d2.aspeed_ddk.609ead220c3d04df-cgu.15.rcgu.o):(.rodata..Lanon.d408e0e24f75872748c66222b416f623.47)
    ebff     ebff       30     1         /home/ferrite/rusty1968/initiative/aspeed-rust/target/thumbv7em-none-eabihf/release/deps/libaspeed_ddk-ba190f65fcc992d2.rlib(aspeed_ddk-ba190f65fcc992d2.aspeed_ddk.609ead220c3d04df-cgu.15.rcgu.o):(.rodata..Lanon.d408e0e24f75872748c66222b416f623.48)
    ec2f     ec2f      100     1         /home/ferrite/rusty1968/initiative/aspeed-rust/target/thumbv7em-none-eabihf/release/deps/libaspeed_ddk-ba190f65fcc992d2.rlib(aspeed_ddk-ba190f65fcc992d2.aspeed_ddk.609ead220c3d04df-cgu.15.rcgu.o):(.rodata..Lanon.d408e0e24f75872748c66222b416f623.49)
    ed2f     ed2f      100     1         /home/ferrite/rusty1968/initiative/aspeed-rust/target/thumbv7em-none-eabihf/release/deps/libaspeed_ddk-ba190f65fcc992d2.rlib(aspeed_ddk-ba190f65fcc992d2.aspeed_ddk.609ead220c3d04df-cgu.15.rcgu.o):(.rodata..Lanon.d408e0e24f75872748c66222b416f623.50)
    ee2f     ee2f      100     1         /home/ferrite/rusty1968/initiative/aspeed-rust/target/thumbv7em-none-eabihf/release/deps/libaspeed_ddk-ba190f65fcc992d2.rlib(aspeed_ddk-ba190f65fcc992d2.aspeed_ddk.609ead220c3d04df-cgu.15.rcgu.o):(.rodata..Lanon.d408e0e24f75872748c66222b416f623.51)
    ef2f     ef2f       40     1         /home/ferrite/rusty1968/initiative/aspeed-rust/target/thumbv7em-none-eabihf/release/deps/libaspeed_ddk-ba190f65fcc992d2.rlib(aspeed_ddk-ba190f65fcc992d2.aspeed_ddk.609ead220c3d04df-cgu.15.rcgu.o):(.rodata..Lanon.d408e0e24f75872748c66222b416f623.52)
    ef6f     ef6f      100     1         /home/ferrite/rusty1968/initiative/aspeed-rust/target/thumbv7em-none-eabihf/release/deps/libaspeed_ddk-ba190f65fcc992d2.rlib(aspeed_ddk-ba190f65fcc992d2.aspeed_ddk.609ead220c3d04df-cgu.15.rcgu.o):(.rodata..Lanon.d408e0e24f75872748c66222b416f623.53)
    f06f     f06f      180     1         /home/ferrite/rusty1968/initiative/aspeed-rust/target/thumbv7em-none-eabihf/release/deps/libaspeed_ddk-ba190f65fcc992d2.rlib(aspeed_ddk-ba190f65fcc992d2.aspeed_ddk.609ead220c3d04df-cgu.15.rcgu.o):(.rodata..Lanon.d408e0e24f75872748c66222b416f623.54)
    f1ef     f1ef      180     1         /home/ferrite/rusty1968/initiative/aspeed-rust/target/thumbv7em-none-eabihf/release/deps/libaspeed_ddk-ba190f65fcc992d2.rlib(aspeed_ddk-ba190f65fcc992d2.aspeed_ddk.609ead220c3d04df-cgu.15.rcgu.o):(.rodata..Lanon.d408e0e24f75872748c66222b416f623.55)
    f36f     f36f      180     1         /home/ferrite/rusty1968/initiative/aspeed-rust/target/thumbv7em-none-eabihf/release/deps/libaspeed_ddk-ba190f65fcc992d2.rlib(aspeed_ddk-ba190f65fcc992d2.aspeed_ddk.609ead220c3d04df-cgu.15.rcgu.o):(.rodata..Lanon.d408e0e24f75872748c66222b416f623.57)
    f4ef     f4ef      180     1         /home/ferrite/rusty1968/initiative/aspeed-rust/target/thumbv7em-none-eabihf/release/deps/libaspeed_ddk-ba190f65fcc992d2.rlib(aspeed_ddk-ba190f65fcc992d2.aspeed_ddk.609ead220c3d04df-cgu.15.rcgu.o):(.rodata..Lanon.d408e0e24f75872748c66222b416f623.58)
    f66f     f66f      180     1         /home/ferrite/rusty1968/initiative/aspeed-rust/target/thumbv7em-none-eabihf/release/deps/libaspeed_ddk-ba190f65fcc992d2.rlib(aspeed_ddk-ba190f65fcc992d2.aspeed_ddk.609ead220c3d04df-cgu.15.rcgu.o):(.rodata..Lanon.d408e0e24f75872748c66222b416f623.59)
    f7ef     f7ef       30     1         /home/ferrite/rusty1968/initiative/aspeed-rust/target/thumbv7em-none-eabihf/release/deps/libaspeed_ddk-ba190f65fcc992d2.rlib(aspeed_ddk-ba190f65fcc992d2.aspeed_ddk.609ead220c3d04df-cgu.15.rcgu.o):(.rodata..Lanon.d408e0e24f75872748c66222b416f623.60)
    f81f     f81f      180     1         /home/ferrite/rusty1968/initiative/aspeed-rust/target/thumbv7em-none-eabihf/release/deps/libaspeed_ddk-ba190f65fcc992d2.rlib(aspeed_ddk-ba190f65fcc992d2.aspeed_ddk.609ead220c3d04df-cgu.15.rcgu.o):(.rodata..Lanon.d408e0e24f75872748c66222b416f623.61)
    f99f     f99f      180     1         /home/ferrite/rusty1968/initiative/aspeed-rust/target/thumbv7em-none-eabihf/release/deps/libaspeed_ddk-ba190f65fcc992d2.rlib(aspeed_ddk-ba190f65fcc992d2.aspeed_ddk.609ead220c3d04df-cgu.15.rcgu.o):(.rodata..Lanon.d408e0e24f75872748c66222b416f623.62)
    fb1f     fb1f      180     1         /home/ferrite/rusty1968/initiative/aspeed-rust/target/thumbv7em-none-eabihf/release/deps/libaspeed_ddk-ba190f65fcc992d2.rlib(aspeed_ddk-ba190f65fcc992d2.aspeed_ddk.609ead220c3d04df-cgu.15.rcgu.o):(.rodata..Lanon.d408e0e24f75872748c66222b416f623.63)
    fc9f     fc9f       40     1         /home/ferrite/rusty1968/initiative/aspeed-rust/target/thumbv7em-none-eabihf/release/deps/libaspeed_ddk-ba190f65fcc992d2.rlib(aspeed_ddk-ba190f65fcc992d2.aspeed_ddk.609ead220c3d04df-cgu.15.rcgu.o):(.rodata..Lanon.d408e0e24f75872748c66222b416f623.64)
    fcdf     fcdf      180     1         /home/ferrite/rusty1968/initiative/aspeed-rust/target/thumbv7em-none-eabihf/release/deps/libaspeed_ddk-ba190f65fcc992d2.rlib(aspeed_ddk-ba190f65fcc992d2.aspeed_ddk.609ead220c3d04df-cgu.15.rcgu.o):(.rodata..Lanon.d408e0e24f75872748c66222b416f623.65)
    fe5f     fe5f      200     1         /home/ferrite/rusty1968/initiative/aspeed-rust/target/thumbv7em-none-eabihf/release/deps/libaspeed_ddk-ba190f65fcc992d2.rlib(aspeed_ddk-ba190f65fcc992d2.aspeed_ddk.609ead220c3d04df-cgu.15.rcgu.o):(.rodata..Lanon.d408e0e24f75872748c66222b416f623.66)
   1005f    1005f      200     1         /home/ferrite/rusty1968/initiative/aspeed-rust/target/thumbv7em-none-eabihf/release/deps/libaspeed_ddk-ba190f65fcc992d2.rlib(aspeed_ddk-ba190f65fcc992d2.aspeed_ddk.609ead220c3d04df-cgu.15.rcgu.o):(.rodata..Lanon.d408e0e24f75872748c66222b416f623.67)
   1025f    1025f      200     1         /home/ferrite/rusty1968/initiative/aspeed-rust/target/thumbv7em-none-eabihf/release/deps/libaspeed_ddk-ba190f65fcc992d2.rlib(aspeed_ddk-ba190f65fcc992d2.aspeed_ddk.609ead220c3d04df-cgu.15.rcgu.o):(.rodata..Lanon.d408e0e24f75872748c66222b416f623.69)
   1045f    1045f      200     1         /home/ferrite/rusty1968/initiative/aspeed-rust/target/thumbv7em-none-eabihf/release/deps/libaspeed_ddk-ba190f65fcc992d2.rlib(aspeed_ddk-ba190f65fcc992d2.aspeed_ddk.609ead220c3d04df-cgu.15.rcgu.o):(.rodata..Lanon.d408e0e24f75872748c66222b416f623.70)
   1065f    1065f      200     1         /home/ferrite/rusty1968/initiative/aspeed-rust/target/thumbv7em-none-eabihf/release/deps/libaspeed_ddk-ba190f65fcc992d2.rlib(aspeed_ddk-ba190f65fcc992d2.aspeed_ddk.609ead220c3d04df-cgu.15.rcgu.o):(.rodata..Lanon.d408e0e24f75872748c66222b416f623.71)
   1085f    1085f       30     1         /home/ferrite/rusty1968/initiative/aspeed-rust/target/thumbv7em-none-eabihf/release/deps/libaspeed_ddk-ba190f65fcc992d2.rlib(aspeed_ddk-ba190f65fcc992d2.aspeed_ddk.609ead220c3d04df-cgu.15.rcgu.o):(.rodata..Lanon.d408e0e24f75872748c66222b416f623.72)
   1088f    1088f      200     1         /home/ferrite/rusty1968/initiative/aspeed-rust/target/thumbv7em-none-eabihf/release/deps/libaspeed_ddk-ba190f65fcc992d2.rlib(aspeed_ddk-ba190f65fcc992d2.aspeed_ddk.609ead220c3d04df-cgu.15.rcgu.o):(.rodata..Lanon.d408e0e24f75872748c66222b416f623.73)
   10a8f    10a8f      200     1         /home/ferrite/rusty1968/initiative/aspeed-rust/target/thumbv7em-none-eabihf/release/deps/libaspeed_ddk-ba190f65fcc992d2.rlib(aspeed_ddk-ba190f65fcc992d2.aspeed_ddk.609ead220c3d04df-cgu.15.rcgu.o):(.rodata..Lanon.d408e0e24f75872748c66222b416f623.74)
   10c8f    10c8f      200     1         /home/ferrite/rusty1968/initiative/aspeed-rust/target/thumbv7em-none-eabihf/release/deps/libaspeed_ddk-ba190f65fcc992d2.rlib(aspeed_ddk-ba190f65fcc992d2.aspeed_ddk.609ead220c3d04df-cgu.15.rcgu.o):(.rodata..Lanon.d408e0e24f75872748c66222b416f623.75)
   10e8f    10e8f       40     1         /home/ferrite/rusty1968/initiative/aspeed-rust/target/thumbv7em-none-eabihf/release/deps/libaspeed_ddk-ba190f65fcc992d2.rlib(aspeed_ddk-ba190f65fcc992d2.aspeed_ddk.609ead220c3d04df-cgu.15.rcgu.o):(.rodata..Lanon.d408e0e24f75872748c66222b416f623.76)
   10ecf    10ecf      200     1         /home/ferrite/rusty1968/initiative/aspeed-rust/target/thumbv7em-none-eabihf/release/deps/libaspeed_ddk-ba190f65fcc992d2.rlib(aspeed_ddk-ba190f65fcc992d2.aspeed_ddk.609ead220c3d04df-cgu.15.rcgu.o):(.rodata..Lanon.d408e0e24f75872748c66222b416f623.77)
   110d0    110d0      21c     4         /home/ferrite/rusty1968/initiative/aspeed-rust/target/thumbv7em-none-eabihf/release/deps/libaspeed_ddk-ba190f65fcc992d2.rlib(aspeed_ddk-ba190f65fcc992d2.aspeed_ddk.609ead220c3d04df-cgu.15.rcgu.o):(.rodata..Lanon.d408e0e24f75872748c66222b416f623.78)
   112ec    112ec        8     4         /home/ferrite/rusty1968/initiative/aspeed-rust/target/thumbv7em-none-eabihf/release/deps/libaspeed_ddk-ba190f65fcc992d2.rlib(aspeed_ddk-ba190f65fcc992d2.aspeed_ddk.609ead220c3d04df-cgu.15.rcgu.o):(.rodata._ZN10aspeed_ddk5tests10functional12rsa_test_vec13RSA_VERIFY_TV17h094fa033d0fd71d6E)
   112ec    112ec        8     1                 aspeed_ddk::tests::functional::rsa_test_vec::RSA_VERIFY_TV::h094fa033d0fd71d6
   112f4    112f4       22     1         /home/ferrite/rusty1968/initiative/aspeed-rust/target/thumbv7em-none-eabihf/release/deps/libaspeed_ddk-ba190f65fcc992d2.rlib(aspeed_ddk-ba190f65fcc992d2.aspeed_ddk.609ead220c3d04df-cgu.15.rcgu.o):(.rodata..Lanon.d408e0e24f75872748c66222b416f623.81)
   11316    11316       19     1         /home/ferrite/rusty1968/initiative/aspeed-rust/target/thumbv7em-none-eabihf/release/deps/libaspeed_ddk-ba190f65fcc992d2.rlib(aspeed_ddk-ba190f65fcc992d2.aspeed_ddk.609ead220c3d04df-cgu.15.rcgu.o):(.rodata..Lanon.d408e0e24f75872748c66222b416f623.84)
   11330    11330        8     4         /home/ferrite/rusty1968/initiative/aspeed-rust/target/thumbv7em-none-eabihf/release/deps/libaspeed_ddk-ba190f65fcc992d2.rlib(aspeed_ddk-ba190f65fcc992d2.aspeed_ddk.609ead220c3d04df-cgu.15.rcgu.o):(.rodata..Lanon.d408e0e24f75872748c66222b416f623.85)
   11330    11330        8     1                 .Lanon.d408e0e24f75872748c66222b416f623.85
   11338    11338       10     4         /home/ferrite/rusty1968/initiative/aspeed-rust/target/thumbv7em-none-eabihf/release/deps/libaspeed_ddk-ba190f65fcc992d2.rlib(aspeed_ddk-ba190f65fcc992d2.aspeed_ddk.609ead220c3d04df-cgu.15.rcgu.o):(.rodata..Lanon.d408e0e24f75872748c66222b416f623.86)
   11338    11338       10     1                 .Lanon.d408e0e24f75872748c66222b416f623.86
   11348    11348        7     1         /home/ferrite/rusty1968/initiative/aspeed-rust/target/thumbv7em-none-eabihf/release/deps/libaspeed_ddk-ba190f65fcc992d2.rlib(aspeed_ddk-ba190f65fcc992d2.aspeed_ddk.609ead220c3d04df-cgu.15.rcgu.o):(.rodata..Lanon.d408e0e24f75872748c66222b416f623.87)
   11348    11348        7     1                 .Lanon.d408e0e24f75872748c66222b416f623.87
   11350    11350       10     4         /home/ferrite/rusty1968/initiative/aspeed-rust/target/thumbv7em-none-eabihf/release/deps/libaspeed_ddk-ba190f65fcc992d2.rlib(aspeed_ddk-ba190f65fcc992d2.aspeed_ddk.609ead220c3d04df-cgu.15.rcgu.o):(.rodata..Lanon.d408e0e24f75872748c66222b416f623.88)
   11350    11350       10     1                 .Lanon.d408e0e24f75872748c66222b416f623.88
   11360    11360        d     1         /home/ferrite/rusty1968/initiative/aspeed-rust/target/thumbv7em-none-eabihf/release/deps/libaspeed_ddk-ba190f65fcc992d2.rlib(aspeed_ddk-ba190f65fcc992d2.aspeed_ddk.609ead220c3d04df-cgu.15.rcgu.o):(.rodata..Lanon.d408e0e24f75872748c66222b416f623.89)
   11360    11360        d     1                 .Lanon.d408e0e24f75872748c66222b416f623.89
   1136d    1136d        7     1         /home/ferrite/rusty1968/initiative/aspeed-rust/target/thumbv7em-none-eabihf/release/deps/libaspeed_ddk-ba190f65fcc992d2.rlib(aspeed_ddk-ba190f65fcc992d2.aspeed_ddk.609ead220c3d04df-cgu.15.rcgu.o):(.rodata..Lanon.d408e0e24f75872748c66222b416f623.90)
   1136d    1136d        7     1                 .Lanon.d408e0e24f75872748c66222b416f623.90
   11374    11374       11     1         /home/ferrite/rusty1968/initiative/aspeed-rust/target/thumbv7em-none-eabihf/release/deps/libaspeed_ddk-ba190f65fcc992d2.rlib(aspeed_ddk-ba190f65fcc992d2.aspeed_ddk.609ead220c3d04df-cgu.15.rcgu.o):(.rodata..Lanon.d408e0e24f75872748c66222b416f623.91)
   11374    11374       11     1                 .Lanon.d408e0e24f75872748c66222b416f623.91
   11385    11385        3     1         /home/ferrite/rusty1968/initiative/aspeed-rust/target/thumbv7em-none-eabihf/release/deps/libaspeed_ddk-ba190f65fcc992d2.rlib(aspeed_ddk-ba190f65fcc992d2.aspeed_ddk.609ead220c3d04df-cgu.15.rcgu.o):(.rodata..Lanon.d408e0e24f75872748c66222b416f623.92)
   11385    11385        3     1                 .Lanon.d408e0e24f75872748c66222b416f623.92
   11388    11388        7     1         /home/ferrite/rusty1968/initiative/aspeed-rust/target/thumbv7em-none-eabihf/release/deps/libaspeed_ddk-ba190f65fcc992d2.rlib(aspeed_ddk-ba190f65fcc992d2.aspeed_ddk.609ead220c3d04df-cgu.15.rcgu.o):(.rodata..Lanon.d408e0e24f75872748c66222b416f623.94)
   11388    11388        7     1                 .Lanon.d408e0e24f75872748c66222b416f623.94
   1138f    1138f        5     1         /home/ferrite/rusty1968/initiative/aspeed-rust/target/thumbv7em-none-eabihf/release/deps/libaspeed_ddk-ba190f65fcc992d2.rlib(aspeed_ddk-ba190f65fcc992d2.aspeed_ddk.609ead220c3d04df-cgu.15.rcgu.o):(.rodata..Lanon.d408e0e24f75872748c66222b416f623.95)
   1138f    1138f        5     1                 .Lanon.d408e0e24f75872748c66222b416f623.95
   11394    11394        f     1         /home/ferrite/rusty1968/initiative/aspeed-rust/target/thumbv7em-none-eabihf/release/deps/libaspeed_ddk-ba190f65fcc992d2.rlib(aspeed_ddk-ba190f65fcc992d2.aspeed_ddk.609ead220c3d04df-cgu.15.rcgu.o):(.rodata..Lanon.d408e0e24f75872748c66222b416f623.97)
   11394    11394        f     1                 .Lanon.d408e0e24f75872748c66222b416f623.97
   113a4    113a4       1c     4         /home/ferrite/rusty1968/initiative/aspeed-rust/target/thumbv7em-none-eabihf/release/deps/libaspeed_ddk-ba190f65fcc992d2.rlib(aspeed_ddk-ba190f65fcc992d2.aspeed_ddk.609ead220c3d04df-cgu.15.rcgu.o):(.rodata..Lswitch.table._ZN88_$LT$aspeed_ddk..hmac..OpContextImpl$LT$A$GT$$u20$as$u20$proposed_traits..mac..MacOp$GT$6update17he508ef4a1a1acfaaE.44)
   113a4    113a4       1c     1                 .Lswitch.table._ZN88_$LT$aspeed_ddk..hmac..OpContextImpl$LT$A$GT$$u20$as$u20$proposed_traits..mac..MacOp$GT$6update17he508ef4a1a1acfaaE.44
   113c0    113c0       1c     4         /home/ferrite/rusty1968/initiative/aspeed-rust/target/thumbv7em-none-eabihf/release/deps/libaspeed_ddk-ba190f65fcc992d2.rlib(aspeed_ddk-ba190f65fcc992d2.aspeed_ddk.609ead220c3d04df-cgu.15.rcgu.o):(.rodata..Lswitch.table._ZN88_$LT$aspeed_ddk..hmac..OpContextImpl$LT$A$GT$$u20$as$u20$proposed_traits..mac..MacOp$GT$6update17he508ef4a1a1acfaaE.45)
   113c0    113c0       1c     1                 .Lswitch.table._ZN88_$LT$aspeed_ddk..hmac..OpContextImpl$LT$A$GT$$u20$as$u20$proposed_traits..mac..MacOp$GT$6update17he508ef4a1a1acfaaE.45
   113dc    113dc        5     1         /home/ferrite/rusty1968/initiative/aspeed-rust/target/thumbv7em-none-eabihf/release/deps/libaspeed_ddk-ba190f65fcc992d2.rlib(aspeed_ddk-ba190f65fcc992d2.aspeed_ddk.609ead220c3d04df-cgu.02.rcgu.o):(.rodata..Lanon.76e5bf63d1a84f8453f44579bae57f69.0)
   113dc    113dc        5     1                 .Lanon.76e5bf63d1a84f8453f44579bae57f69.0
   113e4    113e4       10     4         /home/ferrite/rusty1968/initiative/aspeed-rust/target/thumbv7em-none-eabihf/release/deps/libaspeed_ddk-ba190f65fcc992d2.rlib(aspeed_ddk-ba190f65fcc992d2.aspeed_ddk.609ead220c3d04df-cgu.02.rcgu.o):(.rodata..Lanon.76e5bf63d1a84f8453f44579bae57f69.1)
   113e4    113e4       10     1                 .Lanon.76e5bf63d1a84f8453f44579bae57f69.1
   113f4    113f4        f     1         /home/ferrite/rusty1968/initiative/aspeed-rust/target/thumbv7em-none-eabihf/release/deps/libaspeed_ddk-ba190f65fcc992d2.rlib(aspeed_ddk-ba190f65fcc992d2.aspeed_ddk.609ead220c3d04df-cgu.02.rcgu.o):(.rodata..Lanon.76e5bf63d1a84f8453f44579bae57f69.2)
   113f4    113f4        f     1                 .Lanon.76e5bf63d1a84f8453f44579bae57f69.2
   11404    11404       18     4         /home/ferrite/rusty1968/initiative/aspeed-rust/target/thumbv7em-none-eabihf/release/deps/libaspeed_ddk-ba190f65fcc992d2.rlib(aspeed_ddk-ba190f65fcc992d2.aspeed_ddk.609ead220c3d04df-cgu.02.rcgu.o):(.rodata..Lanon.76e5bf63d1a84f8453f44579bae57f69.3)
   11404    11404       18     1                 .Lanon.76e5bf63d1a84f8453f44579bae57f69.3
   1141c    1141c       16     1         /home/ferrite/rusty1968/initiative/aspeed-rust/target/thumbv7em-none-eabihf/release/deps/libaspeed_ddk-ba190f65fcc992d2.rlib(aspeed_ddk-ba190f65fcc992d2.aspeed_ddk.609ead220c3d04df-cgu.02.rcgu.o):(.rodata.anon.76e5bf63d1a84f8453f44579bae57f69.4.llvm.6178568609491323605)
   1141c    1141c       16     1                 anon.76e5bf63d1a84f8453f44579bae57f69.4.llvm.6178568609491323605
   11432    11432        9     1         /home/ferrite/rusty1968/initiative/aspeed-rust/target/thumbv7em-none-eabihf/release/deps/libaspeed_ddk-ba190f65fcc992d2.rlib(aspeed_ddk-ba190f65fcc992d2.aspeed_ddk.609ead220c3d04df-cgu.02.rcgu.o):(.rodata..Lanon.76e5bf63d1a84f8453f44579bae57f69.6)
   1143b    1143b        b     1         /home/ferrite/rusty1968/initiative/aspeed-rust/target/thumbv7em-none-eabihf/release/deps/libaspeed_ddk-ba190f65fcc992d2.rlib(aspeed_ddk-ba190f65fcc992d2.aspeed_ddk.609ead220c3d04df-cgu.02.rcgu.o):(.rodata..Lanon.76e5bf63d1a84f8453f44579bae57f69.7)
   11448    11448       10     4         /home/ferrite/rusty1968/initiative/aspeed-rust/target/thumbv7em-none-eabihf/release/deps/libaspeed_ddk-ba190f65fcc992d2.rlib(aspeed_ddk-ba190f65fcc992d2.aspeed_ddk.609ead220c3d04df-cgu.02.rcgu.o):(.rodata..Lanon.76e5bf63d1a84f8453f44579bae57f69.8)
   11448    11448       10     1                 .Lanon.76e5bf63d1a84f8453f44579bae57f69.8
   11458    11458       10     4         /home/ferrite/rusty1968/initiative/aspeed-rust/target/thumbv7em-none-eabihf/release/deps/libaspeed_ddk-ba190f65fcc992d2.rlib(aspeed_ddk-ba190f65fcc992d2.aspeed_ddk.609ead220c3d04df-cgu.02.rcgu.o):(.rodata..Lanon.76e5bf63d1a84f8453f44579bae57f69.10)
   11458    11458       10     1                 .Lanon.76e5bf63d1a84f8453f44579bae57f69.10
   11468    11468       2b     1         /home/ferrite/rusty1968/initiative/aspeed-rust/target/thumbv7em-none-eabihf/release/deps/libaspeed_ddk-ba190f65fcc992d2.rlib(aspeed_ddk-ba190f65fcc992d2.aspeed_ddk.609ead220c3d04df-cgu.02.rcgu.o):(.rodata..Lanon.76e5bf63d1a84f8453f44579bae57f69.11)
   11468    11468       2b     1                 .Lanon.76e5bf63d1a84f8453f44579bae57f69.11
   11493    11493       1e     1         /home/ferrite/rusty1968/initiative/aspeed-rust/target/thumbv7em-none-eabihf/release/deps/libaspeed_ddk-ba190f65fcc992d2.rlib(aspeed_ddk-ba190f65fcc992d2.aspeed_ddk.609ead220c3d04df-cgu.02.rcgu.o):(.rodata..Lanon.76e5bf63d1a84f8453f44579bae57f69.13)
   114b4    114b4        8     4         /home/ferrite/rusty1968/initiative/aspeed-rust/target/thumbv7em-none-eabihf/release/deps/libaspeed_ddk-ba190f65fcc992d2.rlib(aspeed_ddk-ba190f65fcc992d2.aspeed_ddk.609ead220c3d04df-cgu.02.rcgu.o):(.rodata..Lanon.76e5bf63d1a84f8453f44579bae57f69.14)
   114b4    114b4        8     1                 .Lanon.76e5bf63d1a84f8453f44579bae57f69.14
   114bc    114bc       10     4         /home/ferrite/rusty1968/initiative/aspeed-rust/target/thumbv7em-none-eabihf/release/deps/libaspeed_ddk-ba190f65fcc992d2.rlib(aspeed_ddk-ba190f65fcc992d2.aspeed_ddk.609ead220c3d04df-cgu.02.rcgu.o):(.rodata..Lanon.76e5bf63d1a84f8453f44579bae57f69.15)
   114bc    114bc       10     1                 .Lanon.76e5bf63d1a84f8453f44579bae57f69.15
   114cc    114cc       10     4         /home/ferrite/rusty1968/initiative/aspeed-rust/target/thumbv7em-none-eabihf/release/deps/libaspeed_ddk-ba190f65fcc992d2.rlib(aspeed_ddk-ba190f65fcc992d2.aspeed_ddk.609ead220c3d04df-cgu.02.rcgu.o):(.rodata..Lanon.76e5bf63d1a84f8453f44579bae57f69.16)
   114cc    114cc       10     1                 .Lanon.76e5bf63d1a84f8453f44579bae57f69.16
   114dc    114dc       10     4         /home/ferrite/rusty1968/initiative/aspeed-rust/target/thumbv7em-none-eabihf/release/deps/libaspeed_ddk-ba190f65fcc992d2.rlib(aspeed_ddk-ba190f65fcc992d2.aspeed_ddk.609ead220c3d04df-cgu.02.rcgu.o):(.rodata..Lanon.76e5bf63d1a84f8453f44579bae57f69.18)
   114dc    114dc       10     1                 .Lanon.76e5bf63d1a84f8453f44579bae57f69.18
   114ec    114ec       10     4         /home/ferrite/rusty1968/initiative/aspeed-rust/target/thumbv7em-none-eabihf/release/deps/libaspeed_ddk-ba190f65fcc992d2.rlib(aspeed_ddk-ba190f65fcc992d2.aspeed_ddk.609ead220c3d04df-cgu.02.rcgu.o):(.rodata..Lanon.76e5bf63d1a84f8453f44579bae57f69.19)
   114ec    114ec       10     1                 .Lanon.76e5bf63d1a84f8453f44579bae57f69.19
   114fc    114fc       10     4         /home/ferrite/rusty1968/initiative/aspeed-rust/target/thumbv7em-none-eabihf/release/deps/libaspeed_ddk-ba190f65fcc992d2.rlib(aspeed_ddk-ba190f65fcc992d2.aspeed_ddk.609ead220c3d04df-cgu.02.rcgu.o):(.rodata..Lanon.76e5bf63d1a84f8453f44579bae57f69.20)
   114fc    114fc       10     1                 .Lanon.76e5bf63d1a84f8453f44579bae57f69.20
   1150c    1150c       10     4         /home/ferrite/rusty1968/initiative/aspeed-rust/target/thumbv7em-none-eabihf/release/deps/libaspeed_ddk-ba190f65fcc992d2.rlib(aspeed_ddk-ba190f65fcc992d2.aspeed_ddk.609ead220c3d04df-cgu.02.rcgu.o):(.rodata..Lanon.76e5bf63d1a84f8453f44579bae57f69.21)
   1150c    1150c       10     1                 .Lanon.76e5bf63d1a84f8453f44579bae57f69.21
   1151c    1151c       10     4         /home/ferrite/rusty1968/initiative/aspeed-rust/target/thumbv7em-none-eabihf/release/deps/libaspeed_ddk-ba190f65fcc992d2.rlib(aspeed_ddk-ba190f65fcc992d2.aspeed_ddk.609ead220c3d04df-cgu.02.rcgu.o):(.rodata..Lanon.76e5bf63d1a84f8453f44579bae57f69.22)
   1151c    1151c       10     1                 .Lanon.76e5bf63d1a84f8453f44579bae57f69.22
   1152c    1152c       11     1         /home/ferrite/rusty1968/initiative/aspeed-rust/target/thumbv7em-none-eabihf/release/deps/libaspeed_ddk-ba190f65fcc992d2.rlib(aspeed_ddk-ba190f65fcc992d2.aspeed_ddk.609ead220c3d04df-cgu.02.rcgu.o):(.rodata..Lanon.76e5bf63d1a84f8453f44579bae57f69.23)
   11540    11540        8     4         /home/ferrite/rusty1968/initiative/aspeed-rust/target/thumbv7em-none-eabihf/release/deps/libaspeed_ddk-ba190f65fcc992d2.rlib(aspeed_ddk-ba190f65fcc992d2.aspeed_ddk.609ead220c3d04df-cgu.02.rcgu.o):(.rodata..Lanon.76e5bf63d1a84f8453f44579bae57f69.24)
   11540    11540        8     1                 .Lanon.76e5bf63d1a84f8453f44579bae57f69.24
   11548    11548       10     4         /home/ferrite/rusty1968/initiative/aspeed-rust/target/thumbv7em-none-eabihf/release/deps/libaspeed_ddk-ba190f65fcc992d2.rlib(aspeed_ddk-ba190f65fcc992d2.aspeed_ddk.609ead220c3d04df-cgu.02.rcgu.o):(.rodata..Lanon.76e5bf63d1a84f8453f44579bae57f69.25)
   11548    11548       10     1                 .Lanon.76e5bf63d1a84f8453f44579bae57f69.25
   11558    11558       56     1         /home/ferrite/rusty1968/initiative/aspeed-rust/target/thumbv7em-none-eabihf/release/deps/libaspeed_ddk-ba190f65fcc992d2.rlib(aspeed_ddk-ba190f65fcc992d2.aspeed_ddk.609ead220c3d04df-cgu.02.rcgu.o):(.rodata..Lanon.76e5bf63d1a84f8453f44579bae57f69.26)
   115b0    115b0       10     4         /home/ferrite/rusty1968/initiative/aspeed-rust/target/thumbv7em-none-eabihf/release/deps/libaspeed_ddk-ba190f65fcc992d2.rlib(aspeed_ddk-ba190f65fcc992d2.aspeed_ddk.609ead220c3d04df-cgu.02.rcgu.o):(.rodata..Lanon.76e5bf63d1a84f8453f44579bae57f69.27)
   115b0    115b0       10     1                 .Lanon.76e5bf63d1a84f8453f44579bae57f69.27
   115c0    115c0       10     4         /home/ferrite/rusty1968/initiative/aspeed-rust/target/thumbv7em-none-eabihf/release/deps/libaspeed_ddk-ba190f65fcc992d2.rlib(aspeed_ddk-ba190f65fcc992d2.aspeed_ddk.609ead220c3d04df-cgu.02.rcgu.o):(.rodata..Lanon.76e5bf63d1a84f8453f44579bae57f69.28)
   115c0    115c0       10     1                 .Lanon.76e5bf63d1a84f8453f44579bae57f69.28
   115d0    115d0       10     4         /home/ferrite/rusty1968/initiative/aspeed-rust/target/thumbv7em-none-eabihf/release/deps/libaspeed_ddk-ba190f65fcc992d2.rlib(aspeed_ddk-ba190f65fcc992d2.aspeed_ddk.609ead220c3d04df-cgu.02.rcgu.o):(.rodata..Lanon.76e5bf63d1a84f8453f44579bae57f69.30)
   115d0    115d0       10     1                 .Lanon.76e5bf63d1a84f8453f44579bae57f69.30
   115e0    115e0       10     4         /home/ferrite/rusty1968/initiative/aspeed-rust/target/thumbv7em-none-eabihf/release/deps/libaspeed_ddk-ba190f65fcc992d2.rlib(aspeed_ddk-ba190f65fcc992d2.aspeed_ddk.609ead220c3d04df-cgu.02.rcgu.o):(.rodata..Lanon.76e5bf63d1a84f8453f44579bae57f69.32)
   115e0    115e0       10     1                 .Lanon.76e5bf63d1a84f8453f44579bae57f69.32
   115f0    115f0       10     4         /home/ferrite/rusty1968/initiative/aspeed-rust/target/thumbv7em-none-eabihf/release/deps/libaspeed_ddk-ba190f65fcc992d2.rlib(aspeed_ddk-ba190f65fcc992d2.aspeed_ddk.609ead220c3d04df-cgu.02.rcgu.o):(.rodata..Lanon.76e5bf63d1a84f8453f44579bae57f69.33)
   115f0    115f0       10     1                 .Lanon.76e5bf63d1a84f8453f44579bae57f69.33
   11600    11600        a     1         /home/ferrite/rusty1968/initiative/aspeed-rust/target/thumbv7em-none-eabihf/release/deps/libaspeed_ddk-ba190f65fcc992d2.rlib(aspeed_ddk-ba190f65fcc992d2.aspeed_ddk.609ead220c3d04df-cgu.02.rcgu.o):(.rodata..Lanon.76e5bf63d1a84f8453f44579bae57f69.35)
   1160c    1160c        8     4         /home/ferrite/rusty1968/initiative/aspeed-rust/target/thumbv7em-none-eabihf/release/deps/libaspeed_ddk-ba190f65fcc992d2.rlib(aspeed_ddk-ba190f65fcc992d2.aspeed_ddk.609ead220c3d04df-cgu.02.rcgu.o):(.rodata..Lanon.76e5bf63d1a84f8453f44579bae57f69.36)
   1160c    1160c        8     1                 .Lanon.76e5bf63d1a84f8453f44579bae57f69.36
   11614    11614       10     4         /home/ferrite/rusty1968/initiative/aspeed-rust/target/thumbv7em-none-eabihf/release/deps/libaspeed_ddk-ba190f65fcc992d2.rlib(aspeed_ddk-ba190f65fcc992d2.aspeed_ddk.609ead220c3d04df-cgu.02.rcgu.o):(.rodata..Lanon.76e5bf63d1a84f8453f44579bae57f69.37)
   11614    11614       10     1                 .Lanon.76e5bf63d1a84f8453f44579bae57f69.37
   11624    11624       10     4         /home/ferrite/rusty1968/initiative/aspeed-rust/target/thumbv7em-none-eabihf/release/deps/libaspeed_ddk-ba190f65fcc992d2.rlib(aspeed_ddk-ba190f65fcc992d2.aspeed_ddk.609ead220c3d04df-cgu.02.rcgu.o):(.rodata..Lanon.76e5bf63d1a84f8453f44579bae57f69.38)
   11624    11624       10     1                 .Lanon.76e5bf63d1a84f8453f44579bae57f69.38
   11634    11634        9     1         /home/ferrite/rusty1968/initiative/aspeed-rust/target/thumbv7em-none-eabihf/release/deps/libaspeed_ddk-ba190f65fcc992d2.rlib(aspeed_ddk-ba190f65fcc992d2.aspeed_ddk.609ead220c3d04df-cgu.02.rcgu.o):(.rodata..Lanon.76e5bf63d1a84f8453f44579bae57f69.39)
   1163d    1163d        a     1         /home/ferrite/rusty1968/initiative/aspeed-rust/target/thumbv7em-none-eabihf/release/deps/libaspeed_ddk-ba190f65fcc992d2.rlib(aspeed_ddk-ba190f65fcc992d2.aspeed_ddk.609ead220c3d04df-cgu.02.rcgu.o):(.rodata..Lanon.76e5bf63d1a84f8453f44579bae57f69.40)
   11648    11648       10     4         /home/ferrite/rusty1968/initiative/aspeed-rust/target/thumbv7em-none-eabihf/release/deps/libaspeed_ddk-ba190f65fcc992d2.rlib(aspeed_ddk-ba190f65fcc992d2.aspeed_ddk.609ead220c3d04df-cgu.02.rcgu.o):(.rodata..Lanon.76e5bf63d1a84f8453f44579bae57f69.41)
   11648    11648       10     1                 .Lanon.76e5bf63d1a84f8453f44579bae57f69.41
   11658    11658       10     4         /home/ferrite/rusty1968/initiative/aspeed-rust/target/thumbv7em-none-eabihf/release/deps/libaspeed_ddk-ba190f65fcc992d2.rlib(aspeed_ddk-ba190f65fcc992d2.aspeed_ddk.609ead220c3d04df-cgu.02.rcgu.o):(.rodata..Lanon.76e5bf63d1a84f8453f44579bae57f69.42)
   11658    11658       10     1                 .Lanon.76e5bf63d1a84f8453f44579bae57f69.42
   11668    11668       22     1         /home/ferrite/rusty1968/initiative/aspeed-rust/target/thumbv7em-none-eabihf/release/deps/libaspeed_ddk-ba190f65fcc992d2.rlib(aspeed_ddk-ba190f65fcc992d2.aspeed_ddk.609ead220c3d04df-cgu.02.rcgu.o):(.rodata..Lanon.76e5bf63d1a84f8453f44579bae57f69.44)
   1168c    1168c        8     4         /home/ferrite/rusty1968/initiative/aspeed-rust/target/thumbv7em-none-eabihf/release/deps/libaspeed_ddk-ba190f65fcc992d2.rlib(aspeed_ddk-ba190f65fcc992d2.aspeed_ddk.609ead220c3d04df-cgu.02.rcgu.o):(.rodata..Lanon.76e5bf63d1a84f8453f44579bae57f69.45)
   1168c    1168c        8     1                 .Lanon.76e5bf63d1a84f8453f44579bae57f69.45
   11694    11694       2f     1         /home/ferrite/rusty1968/initiative/aspeed-rust/target/thumbv7em-none-eabihf/release/deps/libaspeed_ddk-ba190f65fcc992d2.rlib(aspeed_ddk-ba190f65fcc992d2.aspeed_ddk.609ead220c3d04df-cgu.02.rcgu.o):(.rodata..Lanon.76e5bf63d1a84f8453f44579bae57f69.48)
   116c4    116c4        8     4         /home/ferrite/rusty1968/initiative/aspeed-rust/target/thumbv7em-none-eabihf/release/deps/libaspeed_ddk-ba190f65fcc992d2.rlib(aspeed_ddk-ba190f65fcc992d2.aspeed_ddk.609ead220c3d04df-cgu.02.rcgu.o):(.rodata..Lanon.76e5bf63d1a84f8453f44579bae57f69.49)
   116c4    116c4        8     1                 .Lanon.76e5bf63d1a84f8453f44579bae57f69.49
   116cc    116cc       10     4         /home/ferrite/rusty1968/initiative/aspeed-rust/target/thumbv7em-none-eabihf/release/deps/libaspeed_ddk-ba190f65fcc992d2.rlib(aspeed_ddk-ba190f65fcc992d2.aspeed_ddk.609ead220c3d04df-cgu.02.rcgu.o):(.rodata..Lanon.76e5bf63d1a84f8453f44579bae57f69.50)
   116cc    116cc       10     1                 .Lanon.76e5bf63d1a84f8453f44579bae57f69.50
   116dc    116dc       10     4         /home/ferrite/rusty1968/initiative/aspeed-rust/target/thumbv7em-none-eabihf/release/deps/libaspeed_ddk-ba190f65fcc992d2.rlib(aspeed_ddk-ba190f65fcc992d2.aspeed_ddk.609ead220c3d04df-cgu.02.rcgu.o):(.rodata..Lanon.76e5bf63d1a84f8453f44579bae57f69.57)
   116dc    116dc       10     1                 .Lanon.76e5bf63d1a84f8453f44579bae57f69.57
   116ec    116ec       1f     1         /home/ferrite/rusty1968/initiative/aspeed-rust/target/thumbv7em-none-eabihf/release/deps/libaspeed_ddk-ba190f65fcc992d2.rlib(aspeed_ddk-ba190f65fcc992d2.aspeed_ddk.609ead220c3d04df-cgu.02.rcgu.o):(.rodata..Lanon.76e5bf63d1a84f8453f44579bae57f69.58)
   1170c    1170c        8     4         /home/ferrite/rusty1968/initiative/aspeed-rust/target/thumbv7em-none-eabihf/release/deps/libaspeed_ddk-ba190f65fcc992d2.rlib(aspeed_ddk-ba190f65fcc992d2.aspeed_ddk.609ead220c3d04df-cgu.02.rcgu.o):(.rodata..Lanon.76e5bf63d1a84f8453f44579bae57f69.59)
   1170c    1170c        8     1                 .Lanon.76e5bf63d1a84f8453f44579bae57f69.59
   11714    11714       10     4         /home/ferrite/rusty1968/initiative/aspeed-rust/target/thumbv7em-none-eabihf/release/deps/libaspeed_ddk-ba190f65fcc992d2.rlib(aspeed_ddk-ba190f65fcc992d2.aspeed_ddk.609ead220c3d04df-cgu.02.rcgu.o):(.rodata..Lanon.76e5bf63d1a84f8453f44579bae57f69.60)
   11714    11714       10     1                 .Lanon.76e5bf63d1a84f8453f44579bae57f69.60
   11724    11724        d     1         /home/ferrite/rusty1968/initiative/aspeed-rust/target/thumbv7em-none-eabihf/release/deps/libaspeed_ddk-ba190f65fcc992d2.rlib(aspeed_ddk-ba190f65fcc992d2.aspeed_ddk.609ead220c3d04df-cgu.02.rcgu.o):(.rodata.anon.76e5bf63d1a84f8453f44579bae57f69.62.llvm.6178568609491323605)
   11724    11724        d     1                 anon.76e5bf63d1a84f8453f44579bae57f69.62.llvm.6178568609491323605
   11734    11734       10     4         /home/ferrite/rusty1968/initiative/aspeed-rust/target/thumbv7em-none-eabihf/release/deps/libaspeed_ddk-ba190f65fcc992d2.rlib(aspeed_ddk-ba190f65fcc992d2.aspeed_ddk.609ead220c3d04df-cgu.02.rcgu.o):(.rodata.anon.76e5bf63d1a84f8453f44579bae57f69.63.llvm.6178568609491323605)
   11734    11734       10     1                 anon.76e5bf63d1a84f8453f44579bae57f69.63.llvm.6178568609491323605
   11744    11744       10     4         /home/ferrite/rusty1968/initiative/aspeed-rust/target/thumbv7em-none-eabihf/release/deps/libaspeed_ddk-ba190f65fcc992d2.rlib(aspeed_ddk-ba190f65fcc992d2.aspeed_ddk.609ead220c3d04df-cgu.02.rcgu.o):(.rodata..Lanon.76e5bf63d1a84f8453f44579bae57f69.65)
   11744    11744       10     1                 .Lanon.76e5bf63d1a84f8453f44579bae57f69.65
   11754    11754       10     4         /home/ferrite/rusty1968/initiative/aspeed-rust/target/thumbv7em-none-eabihf/release/deps/libaspeed_ddk-ba190f65fcc992d2.rlib(aspeed_ddk-ba190f65fcc992d2.aspeed_ddk.609ead220c3d04df-cgu.02.rcgu.o):(.rodata..Lanon.76e5bf63d1a84f8453f44579bae57f69.66)
   11754    11754       10     1                 .Lanon.76e5bf63d1a84f8453f44579bae57f69.66
   11764    11764       10     4         /home/ferrite/rusty1968/initiative/aspeed-rust/target/thumbv7em-none-eabihf/release/deps/libaspeed_ddk-ba190f65fcc992d2.rlib(aspeed_ddk-ba190f65fcc992d2.aspeed_ddk.609ead220c3d04df-cgu.02.rcgu.o):(.rodata..Lanon.76e5bf63d1a84f8453f44579bae57f69.67)
   11764    11764       10     1                 .Lanon.76e5bf63d1a84f8453f44579bae57f69.67
   11774    11774       10     4         /home/ferrite/rusty1968/initiative/aspeed-rust/target/thumbv7em-none-eabihf/release/deps/libaspeed_ddk-ba190f65fcc992d2.rlib(aspeed_ddk-ba190f65fcc992d2.aspeed_ddk.609ead220c3d04df-cgu.02.rcgu.o):(.rodata..Lanon.76e5bf63d1a84f8453f44579bae57f69.68)
   11774    11774       10     1                 .Lanon.76e5bf63d1a84f8453f44579bae57f69.68
   11784    11784       10     4         /home/ferrite/rusty1968/initiative/aspeed-rust/target/thumbv7em-none-eabihf/release/deps/libaspeed_ddk-ba190f65fcc992d2.rlib(aspeed_ddk-ba190f65fcc992d2.aspeed_ddk.609ead220c3d04df-cgu.02.rcgu.o):(.rodata..Lanon.76e5bf63d1a84f8453f44579bae57f69.69)
   11784    11784       10     1                 .Lanon.76e5bf63d1a84f8453f44579bae57f69.69
   11794    11794       10     4         /home/ferrite/rusty1968/initiative/aspeed-rust/target/thumbv7em-none-eabihf/release/deps/libaspeed_ddk-ba190f65fcc992d2.rlib(aspeed_ddk-ba190f65fcc992d2.aspeed_ddk.609ead220c3d04df-cgu.02.rcgu.o):(.rodata.anon.76e5bf63d1a84f8453f44579bae57f69.72.llvm.6178568609491323605)
   11794    11794       10     1                 anon.76e5bf63d1a84f8453f44579bae57f69.72.llvm.6178568609491323605
   117a4    117a4        7     1         /home/ferrite/rusty1968/initiative/aspeed-rust/target/thumbv7em-none-eabihf/release/deps/libaspeed_ddk-ba190f65fcc992d2.rlib(aspeed_ddk-ba190f65fcc992d2.aspeed_ddk.609ead220c3d04df-cgu.02.rcgu.o):(.rodata..Lanon.76e5bf63d1a84f8453f44579bae57f69.75)
   117ac    117ac        8     4         /home/ferrite/rusty1968/initiative/aspeed-rust/target/thumbv7em-none-eabihf/release/deps/libaspeed_ddk-ba190f65fcc992d2.rlib(aspeed_ddk-ba190f65fcc992d2.aspeed_ddk.609ead220c3d04df-cgu.02.rcgu.o):(.rodata..Lanon.76e5bf63d1a84f8453f44579bae57f69.76)
   117ac    117ac        8     1                 .Lanon.76e5bf63d1a84f8453f44579bae57f69.76
   117b4    117b4        8     4         /home/ferrite/rusty1968/initiative/aspeed-rust/target/thumbv7em-none-eabihf/release/deps/libaspeed_ddk-ba190f65fcc992d2.rlib(aspeed_ddk-ba190f65fcc992d2.aspeed_ddk.609ead220c3d04df-cgu.02.rcgu.o):(.rodata..Lanon.76e5bf63d1a84f8453f44579bae57f69.78)
   117b4    117b4        8     1                 .Lanon.76e5bf63d1a84f8453f44579bae57f69.78
   117bc    117bc       10     4         /home/ferrite/rusty1968/initiative/aspeed-rust/target/thumbv7em-none-eabihf/release/deps/libaspeed_ddk-ba190f65fcc992d2.rlib(aspeed_ddk-ba190f65fcc992d2.aspeed_ddk.609ead220c3d04df-cgu.02.rcgu.o):(.rodata..Lanon.76e5bf63d1a84f8453f44579bae57f69.79)
   117bc    117bc       10     1                 .Lanon.76e5bf63d1a84f8453f44579bae57f69.79
   117cc    117cc       10     4         /home/ferrite/rusty1968/initiative/aspeed-rust/target/thumbv7em-none-eabihf/release/deps/libaspeed_ddk-ba190f65fcc992d2.rlib(aspeed_ddk-ba190f65fcc992d2.aspeed_ddk.609ead220c3d04df-cgu.02.rcgu.o):(.rodata..Lanon.76e5bf63d1a84f8453f44579bae57f69.80)
   117cc    117cc       10     1                 .Lanon.76e5bf63d1a84f8453f44579bae57f69.80
   117dc    117dc        c     1         /home/ferrite/rusty1968/initiative/aspeed-rust/target/thumbv7em-none-eabihf/release/deps/libaspeed_ddk-ba190f65fcc992d2.rlib(aspeed_ddk-ba190f65fcc992d2.aspeed_ddk.609ead220c3d04df-cgu.02.rcgu.o):(.rodata..Lanon.76e5bf63d1a84f8453f44579bae57f69.81)
   117e8    117e8        8     4         /home/ferrite/rusty1968/initiative/aspeed-rust/target/thumbv7em-none-eabihf/release/deps/libaspeed_ddk-ba190f65fcc992d2.rlib(aspeed_ddk-ba190f65fcc992d2.aspeed_ddk.609ead220c3d04df-cgu.02.rcgu.o):(.rodata..Lanon.76e5bf63d1a84f8453f44579bae57f69.82)
   117e8    117e8        8     1                 .Lanon.76e5bf63d1a84f8453f44579bae57f69.82
   117f0    117f0       10     4         /home/ferrite/rusty1968/initiative/aspeed-rust/target/thumbv7em-none-eabihf/release/deps/libaspeed_ddk-ba190f65fcc992d2.rlib(aspeed_ddk-ba190f65fcc992d2.aspeed_ddk.609ead220c3d04df-cgu.02.rcgu.o):(.rodata..Lanon.76e5bf63d1a84f8453f44579bae57f69.83)
   117f0    117f0       10     1                 .Lanon.76e5bf63d1a84f8453f44579bae57f69.83
   11800    11800        a     1         /home/ferrite/rusty1968/initiative/aspeed-rust/target/thumbv7em-none-eabihf/release/deps/libaspeed_ddk-ba190f65fcc992d2.rlib(aspeed_ddk-ba190f65fcc992d2.aspeed_ddk.609ead220c3d04df-cgu.02.rcgu.o):(.rodata..Lanon.76e5bf63d1a84f8453f44579bae57f69.86)
   1180a    1180a        7     1         /home/ferrite/rusty1968/initiative/aspeed-rust/target/thumbv7em-none-eabihf/release/deps/libaspeed_ddk-ba190f65fcc992d2.rlib(aspeed_ddk-ba190f65fcc992d2.aspeed_ddk.609ead220c3d04df-cgu.02.rcgu.o):(.rodata..Lanon.76e5bf63d1a84f8453f44579bae57f69.87)
   11814    11814       10     4         /home/ferrite/rusty1968/initiative/aspeed-rust/target/thumbv7em-none-eabihf/release/deps/libaspeed_ddk-ba190f65fcc992d2.rlib(aspeed_ddk-ba190f65fcc992d2.aspeed_ddk.609ead220c3d04df-cgu.02.rcgu.o):(.rodata..Lanon.76e5bf63d1a84f8453f44579bae57f69.88)
   11814    11814       10     1                 .Lanon.76e5bf63d1a84f8453f44579bae57f69.88
   11824    11824       10     4         /home/ferrite/rusty1968/initiative/aspeed-rust/target/thumbv7em-none-eabihf/release/deps/libaspeed_ddk-ba190f65fcc992d2.rlib(aspeed_ddk-ba190f65fcc992d2.aspeed_ddk.609ead220c3d04df-cgu.02.rcgu.o):(.rodata..Lanon.76e5bf63d1a84f8453f44579bae57f69.89)
   11824    11824       10     1                 .Lanon.76e5bf63d1a84f8453f44579bae57f69.89
   11834    11834       13     1         /home/ferrite/rusty1968/initiative/aspeed-rust/target/thumbv7em-none-eabihf/release/deps/libaspeed_ddk-ba190f65fcc992d2.rlib(aspeed_ddk-ba190f65fcc992d2.aspeed_ddk.609ead220c3d04df-cgu.02.rcgu.o):(.rodata..Lanon.76e5bf63d1a84f8453f44579bae57f69.90)
   11848    11848        8     4         /home/ferrite/rusty1968/initiative/aspeed-rust/target/thumbv7em-none-eabihf/release/deps/libaspeed_ddk-ba190f65fcc992d2.rlib(aspeed_ddk-ba190f65fcc992d2.aspeed_ddk.609ead220c3d04df-cgu.02.rcgu.o):(.rodata..Lanon.76e5bf63d1a84f8453f44579bae57f69.91)
   11848    11848        8     1                 .Lanon.76e5bf63d1a84f8453f44579bae57f69.91
   11850    11850       10     4         /home/ferrite/rusty1968/initiative/aspeed-rust/target/thumbv7em-none-eabihf/release/deps/libaspeed_ddk-ba190f65fcc992d2.rlib(aspeed_ddk-ba190f65fcc992d2.aspeed_ddk.609ead220c3d04df-cgu.02.rcgu.o):(.rodata..Lanon.76e5bf63d1a84f8453f44579bae57f69.92)
   11850    11850       10     1                 .Lanon.76e5bf63d1a84f8453f44579bae57f69.92
   11860    11860       10     4         /home/ferrite/rusty1968/initiative/aspeed-rust/target/thumbv7em-none-eabihf/release/deps/libaspeed_ddk-ba190f65fcc992d2.rlib(aspeed_ddk-ba190f65fcc992d2.aspeed_ddk.609ead220c3d04df-cgu.02.rcgu.o):(.rodata..Lanon.76e5bf63d1a84f8453f44579bae57f69.93)
   11860    11860       10     1                 .Lanon.76e5bf63d1a84f8453f44579bae57f69.93
   11870    11870       10     4         /home/ferrite/rusty1968/initiative/aspeed-rust/target/thumbv7em-none-eabihf/release/deps/libaspeed_ddk-ba190f65fcc992d2.rlib(aspeed_ddk-ba190f65fcc992d2.aspeed_ddk.609ead220c3d04df-cgu.02.rcgu.o):(.rodata..Lanon.76e5bf63d1a84f8453f44579bae57f69.94)
   11870    11870       10     1                 .Lanon.76e5bf63d1a84f8453f44579bae57f69.94
   11880    11880       10     4         /home/ferrite/rusty1968/initiative/aspeed-rust/target/thumbv7em-none-eabihf/release/deps/libaspeed_ddk-ba190f65fcc992d2.rlib(aspeed_ddk-ba190f65fcc992d2.aspeed_ddk.609ead220c3d04df-cgu.02.rcgu.o):(.rodata..Lanon.76e5bf63d1a84f8453f44579bae57f69.96)
   11880    11880       10     1                 .Lanon.76e5bf63d1a84f8453f44579bae57f69.96
   11890    11890        1     1         /home/ferrite/.rustup/toolchains/nightly-2024-09-17-x86_64-unknown-linux-gnu/lib/rustlib/thumbv7em-none-eabihf/lib/libcore-6c7f6233b52d4c10.rlib(core-6c7f6233b52d4c10.core.852c90009024f853-cgu.0.rcgu.o):(.rodata..Lanon.c811b3abc372918624ffb14c187b2372.143)
   11890    11890        1     1                 .Lanon.c811b3abc372918624ffb14c187b2372.143
   11891    11891        1     1         /home/ferrite/.rustup/toolchains/nightly-2024-09-17-x86_64-unknown-linux-gnu/lib/rustlib/thumbv7em-none-eabihf/lib/libcore-6c7f6233b52d4c10.rlib(core-6c7f6233b52d4c10.core.852c90009024f853-cgu.0.rcgu.o):(.rodata..Lanon.c811b3abc372918624ffb14c187b2372.222)
   11891    11891        1     1                 .Lanon.c811b3abc372918624ffb14c187b2372.222
   11892    11892       12     1         /home/ferrite/.rustup/toolchains/nightly-2024-09-17-x86_64-unknown-linux-gnu/lib/rustlib/thumbv7em-none-eabihf/lib/libcore-6c7f6233b52d4c10.rlib(core-6c7f6233b52d4c10.core.852c90009024f853-cgu.0.rcgu.o):(.rodata..Lanon.c811b3abc372918624ffb14c187b2372.238)
   118a4    118a4       10     4         /home/ferrite/.rustup/toolchains/nightly-2024-09-17-x86_64-unknown-linux-gnu/lib/rustlib/thumbv7em-none-eabihf/lib/libcore-6c7f6233b52d4c10.rlib(core-6c7f6233b52d4c10.core.852c90009024f853-cgu.0.rcgu.o):(.rodata..Lanon.c811b3abc372918624ffb14c187b2372.239)
   118b4    118b4        2     1         /home/ferrite/.rustup/toolchains/nightly-2024-09-17-x86_64-unknown-linux-gnu/lib/rustlib/thumbv7em-none-eabihf/lib/libcore-6c7f6233b52d4c10.rlib(core-6c7f6233b52d4c10.core.852c90009024f853-cgu.0.rcgu.o):(.rodata..Lanon.c811b3abc372918624ffb14c187b2372.258)
   118b4    118b4        2     1                 .Lanon.c811b3abc372918624ffb14c187b2372.258
   118b8    118b8       10     4         /home/ferrite/.rustup/toolchains/nightly-2024-09-17-x86_64-unknown-linux-gnu/lib/rustlib/thumbv7em-none-eabihf/lib/libcore-6c7f6233b52d4c10.rlib(core-6c7f6233b52d4c10.core.852c90009024f853-cgu.0.rcgu.o):(.rodata..Lanon.c811b3abc372918624ffb14c187b2372.259)
   118b8    118b8       10     1                 .Lanon.c811b3abc372918624ffb14c187b2372.259
   118c8    118c8       18     4         /home/ferrite/.rustup/toolchains/nightly-2024-09-17-x86_64-unknown-linux-gnu/lib/rustlib/thumbv7em-none-eabihf/lib/libcore-6c7f6233b52d4c10.rlib(core-6c7f6233b52d4c10.core.852c90009024f853-cgu.0.rcgu.o):(.rodata..Lanon.c811b3abc372918624ffb14c187b2372.260)
   118c8    118c8       18     1                 .Lanon.c811b3abc372918624ffb14c187b2372.260
   118e0    118e0        2     1         /home/ferrite/.rustup/toolchains/nightly-2024-09-17-x86_64-unknown-linux-gnu/lib/rustlib/thumbv7em-none-eabihf/lib/libcore-6c7f6233b52d4c10.rlib(core-6c7f6233b52d4c10.core.852c90009024f853-cgu.0.rcgu.o):(.rodata..Lanon.c811b3abc372918624ffb14c187b2372.263)
   118e0    118e0        2     1                 .Lanon.c811b3abc372918624ffb14c187b2372.263
   118e2    118e2        2     1         /home/ferrite/.rustup/toolchains/nightly-2024-09-17-x86_64-unknown-linux-gnu/lib/rustlib/thumbv7em-none-eabihf/lib/libcore-6c7f6233b52d4c10.rlib(core-6c7f6233b52d4c10.core.852c90009024f853-cgu.0.rcgu.o):(.rodata..Lanon.c811b3abc372918624ffb14c187b2372.265)
   118e2    118e2        2     1                 .Lanon.c811b3abc372918624ffb14c187b2372.265
   118e4    118e4        1     1         /home/ferrite/.rustup/toolchains/nightly-2024-09-17-x86_64-unknown-linux-gnu/lib/rustlib/thumbv7em-none-eabihf/lib/libcore-6c7f6233b52d4c10.rlib(core-6c7f6233b52d4c10.core.852c90009024f853-cgu.0.rcgu.o):(.rodata..Lanon.c811b3abc372918624ffb14c187b2372.271)
   118e4    118e4        1     1                 .Lanon.c811b3abc372918624ffb14c187b2372.271
   118e5    118e5        2     1         /home/ferrite/.rustup/toolchains/nightly-2024-09-17-x86_64-unknown-linux-gnu/lib/rustlib/thumbv7em-none-eabihf/lib/libcore-6c7f6233b52d4c10.rlib(core-6c7f6233b52d4c10.core.852c90009024f853-cgu.0.rcgu.o):(.rodata..Lanon.c811b3abc372918624ffb14c187b2372.272)
   118e5    118e5        2     1                 .Lanon.c811b3abc372918624ffb14c187b2372.272
   118e7    118e7        1     1         /home/ferrite/.rustup/toolchains/nightly-2024-09-17-x86_64-unknown-linux-gnu/lib/rustlib/thumbv7em-none-eabihf/lib/libcore-6c7f6233b52d4c10.rlib(core-6c7f6233b52d4c10.core.852c90009024f853-cgu.0.rcgu.o):(.rodata..Lanon.c811b3abc372918624ffb14c187b2372.275)
   118e7    118e7        1     1                 .Lanon.c811b3abc372918624ffb14c187b2372.275
   118e8    118e8        1     1         /home/ferrite/.rustup/toolchains/nightly-2024-09-17-x86_64-unknown-linux-gnu/lib/rustlib/thumbv7em-none-eabihf/lib/libcore-6c7f6233b52d4c10.rlib(core-6c7f6233b52d4c10.core.852c90009024f853-cgu.0.rcgu.o):(.rodata..Lanon.c811b3abc372918624ffb14c187b2372.276)
   118e8    118e8        1     1                 .Lanon.c811b3abc372918624ffb14c187b2372.276
   118e9    118e9        1     1         /home/ferrite/.rustup/toolchains/nightly-2024-09-17-x86_64-unknown-linux-gnu/lib/rustlib/thumbv7em-none-eabihf/lib/libcore-6c7f6233b52d4c10.rlib(core-6c7f6233b52d4c10.core.852c90009024f853-cgu.0.rcgu.o):(.rodata..Lanon.c811b3abc372918624ffb14c187b2372.283)
   118e9    118e9        1     1                 .Lanon.c811b3abc372918624ffb14c187b2372.283
   118ea    118ea       13     1         /home/ferrite/.rustup/toolchains/nightly-2024-09-17-x86_64-unknown-linux-gnu/lib/rustlib/thumbv7em-none-eabihf/lib/libcore-6c7f6233b52d4c10.rlib(core-6c7f6233b52d4c10.core.852c90009024f853-cgu.0.rcgu.o):(.rodata..Lanon.c811b3abc372918624ffb14c187b2372.295)
   11900    11900       10     4         /home/ferrite/.rustup/toolchains/nightly-2024-09-17-x86_64-unknown-linux-gnu/lib/rustlib/thumbv7em-none-eabihf/lib/libcore-6c7f6233b52d4c10.rlib(core-6c7f6233b52d4c10.core.852c90009024f853-cgu.0.rcgu.o):(.rodata..Lanon.c811b3abc372918624ffb14c187b2372.296)
   11900    11900       10     1                 .Lanon.c811b3abc372918624ffb14c187b2372.296
   11910    11910        2     1         /home/ferrite/.rustup/toolchains/nightly-2024-09-17-x86_64-unknown-linux-gnu/lib/rustlib/thumbv7em-none-eabihf/lib/libcore-6c7f6233b52d4c10.rlib(core-6c7f6233b52d4c10.core.852c90009024f853-cgu.0.rcgu.o):(.rodata..Lanon.c811b3abc372918624ffb14c187b2372.298)
   11910    11910        2     1                 .Lanon.c811b3abc372918624ffb14c187b2372.298
   11912    11912       c8     1         /home/ferrite/.rustup/toolchains/nightly-2024-09-17-x86_64-unknown-linux-gnu/lib/rustlib/thumbv7em-none-eabihf/lib/libcore-6c7f6233b52d4c10.rlib(core-6c7f6233b52d4c10.core.852c90009024f853-cgu.0.rcgu.o):(.rodata..Lanon.c811b3abc372918624ffb14c187b2372.300)
   11912    11912       c8     1                 .Lanon.c811b3abc372918624ffb14c187b2372.300
   119da    119da       12     1         /home/ferrite/.rustup/toolchains/nightly-2024-09-17-x86_64-unknown-linux-gnu/lib/rustlib/thumbv7em-none-eabihf/lib/libcore-6c7f6233b52d4c10.rlib(core-6c7f6233b52d4c10.core.852c90009024f853-cgu.0.rcgu.o):(.rodata..Lanon.c811b3abc372918624ffb14c187b2372.324)
   119ec    119ec       22     1         /home/ferrite/.rustup/toolchains/nightly-2024-09-17-x86_64-unknown-linux-gnu/lib/rustlib/thumbv7em-none-eabihf/lib/libcore-6c7f6233b52d4c10.rlib(core-6c7f6233b52d4c10.core.852c90009024f853-cgu.0.rcgu.o):(.rodata..Lanon.c811b3abc372918624ffb14c187b2372.325)
   11a10    11a10       10     4         /home/ferrite/.rustup/toolchains/nightly-2024-09-17-x86_64-unknown-linux-gnu/lib/rustlib/thumbv7em-none-eabihf/lib/libcore-6c7f6233b52d4c10.rlib(core-6c7f6233b52d4c10.core.852c90009024f853-cgu.0.rcgu.o):(.rodata..Lanon.c811b3abc372918624ffb14c187b2372.326)
   11a10    11a10       10     1                 .Lanon.c811b3abc372918624ffb14c187b2372.326
   11a20    11a20       10     4         /home/ferrite/.rustup/toolchains/nightly-2024-09-17-x86_64-unknown-linux-gnu/lib/rustlib/thumbv7em-none-eabihf/lib/libcore-6c7f6233b52d4c10.rlib(core-6c7f6233b52d4c10.core.852c90009024f853-cgu.0.rcgu.o):(.rodata..Lanon.c811b3abc372918624ffb14c187b2372.328)
   11a20    11a20       10     1                 .Lanon.c811b3abc372918624ffb14c187b2372.328
   11a30    11a30       16     1         /home/ferrite/.rustup/toolchains/nightly-2024-09-17-x86_64-unknown-linux-gnu/lib/rustlib/thumbv7em-none-eabihf/lib/libcore-6c7f6233b52d4c10.rlib(core-6c7f6233b52d4c10.core.852c90009024f853-cgu.0.rcgu.o):(.rodata..Lanon.c811b3abc372918624ffb14c187b2372.329)
   11a46    11a46        d     1         /home/ferrite/.rustup/toolchains/nightly-2024-09-17-x86_64-unknown-linux-gnu/lib/rustlib/thumbv7em-none-eabihf/lib/libcore-6c7f6233b52d4c10.rlib(core-6c7f6233b52d4c10.core.852c90009024f853-cgu.0.rcgu.o):(.rodata..Lanon.c811b3abc372918624ffb14c187b2372.330)
   11a54    11a54       10     4         /home/ferrite/.rustup/toolchains/nightly-2024-09-17-x86_64-unknown-linux-gnu/lib/rustlib/thumbv7em-none-eabihf/lib/libcore-6c7f6233b52d4c10.rlib(core-6c7f6233b52d4c10.core.852c90009024f853-cgu.0.rcgu.o):(.rodata..Lanon.c811b3abc372918624ffb14c187b2372.331)
   11a54    11a54       10     1                 .Lanon.c811b3abc372918624ffb14c187b2372.331
   11a64    11a64       15     1         /home/ferrite/.rustup/toolchains/nightly-2024-09-17-x86_64-unknown-linux-gnu/lib/rustlib/thumbv7em-none-eabihf/lib/libcore-6c7f6233b52d4c10.rlib(core-6c7f6233b52d4c10.core.852c90009024f853-cgu.0.rcgu.o):(.rodata..Lanon.c811b3abc372918624ffb14c187b2372.339)
   11a79    11a79       2b     1         /home/ferrite/.rustup/toolchains/nightly-2024-09-17-x86_64-unknown-linux-gnu/lib/rustlib/thumbv7em-none-eabihf/lib/libcore-6c7f6233b52d4c10.rlib(core-6c7f6233b52d4c10.core.852c90009024f853-cgu.0.rcgu.o):(.rodata..Lanon.c811b3abc372918624ffb14c187b2372.340)
   11aa4    11aa4       18     4         /home/ferrite/.rustup/toolchains/nightly-2024-09-17-x86_64-unknown-linux-gnu/lib/rustlib/thumbv7em-none-eabihf/lib/libcore-6c7f6233b52d4c10.rlib(core-6c7f6233b52d4c10.core.852c90009024f853-cgu.0.rcgu.o):(.rodata..Lanon.c811b3abc372918624ffb14c187b2372.341)
   11aa4    11aa4       18     1                 .Lanon.c811b3abc372918624ffb14c187b2372.341
   11abc    11abc      100     1         /home/ferrite/.rustup/toolchains/nightly-2024-09-17-x86_64-unknown-linux-gnu/lib/rustlib/thumbv7em-none-eabihf/lib/libcore-6c7f6233b52d4c10.rlib(core-6c7f6233b52d4c10.core.852c90009024f853-cgu.0.rcgu.o):(.rodata..Lanon.c811b3abc372918624ffb14c187b2372.352)
   11abc    11abc      100     1                 .Lanon.c811b3abc372918624ffb14c187b2372.352
   11bbc    11bbc       19     1         /home/ferrite/.rustup/toolchains/nightly-2024-09-17-x86_64-unknown-linux-gnu/lib/rustlib/thumbv7em-none-eabihf/lib/libcore-6c7f6233b52d4c10.rlib(core-6c7f6233b52d4c10.core.852c90009024f853-cgu.0.rcgu.o):(.rodata..Lanon.c811b3abc372918624ffb14c187b2372.438)
   11bd8    11bd8        8     4         /home/ferrite/.rustup/toolchains/nightly-2024-09-17-x86_64-unknown-linux-gnu/lib/rustlib/thumbv7em-none-eabihf/lib/libcore-6c7f6233b52d4c10.rlib(core-6c7f6233b52d4c10.core.852c90009024f853-cgu.0.rcgu.o):(.rodata..Lanon.c811b3abc372918624ffb14c187b2372.439)
   11bd8    11bd8        8     1                 .Lanon.c811b3abc372918624ffb14c187b2372.439
   11be0    11be0       39     1         /home/ferrite/.rustup/toolchains/nightly-2024-09-17-x86_64-unknown-linux-gnu/lib/rustlib/thumbv7em-none-eabihf/lib/libcore-6c7f6233b52d4c10.rlib(core-6c7f6233b52d4c10.core.852c90009024f853-cgu.0.rcgu.o):(.rodata..Lanon.c811b3abc372918624ffb14c187b2372.440)
   11c1c    11c1c        8     4         /home/ferrite/.rustup/toolchains/nightly-2024-09-17-x86_64-unknown-linux-gnu/lib/rustlib/thumbv7em-none-eabihf/lib/libcore-6c7f6233b52d4c10.rlib(core-6c7f6233b52d4c10.core.852c90009024f853-cgu.0.rcgu.o):(.rodata..Lanon.c811b3abc372918624ffb14c187b2372.441)
   11c1c    11c1c        8     1                 .Lanon.c811b3abc372918624ffb14c187b2372.441
   11c24    11c24        0     1         . = ALIGN ( 4 )
   11c24    11c24        0     1         __erodata = .
   11c24    11c24        0     4 .data
   11c24    11c24        0     1         . = ALIGN ( 4 )
   11c24    11c24        0     1         __sdata = .
   11c24    11c24        0     1         . = ALIGN ( 4 )
   11c24    11c24        0     1         __edata = .
   11c24    11c24        0     1 __sidata = LOADADDR ( .data )
   11c24    11c24      410     4 .bss
   11c24    11c24        0     1         . = ALIGN ( 4 )
   11c24    11c24        0     1         __sbss = .
   11c24    11c24        c     4         /home/ferrite/rusty1968/initiative/aspeed-rust/target/thumbv7em-none-eabihf/release/deps/libaspeed_ddk-ba190f65fcc992d2.rlib(aspeed_ddk-ba190f65fcc992d2.aspeed_ddk.609ead220c3d04df-cgu.15.rcgu.o):(.bss..L_MergedGlobals)
   11c24    11c24        c     1                 .L_MergedGlobals
   11c24    11c24        1     1                 aspeed_ddk::tests::functional::timer_test::TIMER_INSTANCE::h19857301a4afea0a (.4)
   11c28    11c28        4     1                 aspeed_ddk::tests::functional::timer_test::UART_PTR::h2a777642406dc48d (.0)
   11c2c    11c2c        4     1                 aspeed_ddk::tests::functional::timer_test::TIMER_INSTANCE::h19857301a4afea0a (.3)
   11c30    11c30        1     1         /home/ferrite/rusty1968/initiative/aspeed-rust/target/thumbv7em-none-eabihf/release/deps/libaspeed_ddk-ba190f65fcc992d2.rlib(aspeed_ddk-ba190f65fcc992d2.aspeed_ddk.609ead220c3d04df-cgu.02.rcgu.o):(.bss._ZN10aspeed_ddk3i2c11ast1060_i2c14I2CGLOBAL_INIT17h4fd290adf20d028aE)
   11c30    11c30        1     1                 aspeed_ddk::i2c::ast1060_i2c::I2CGLOBAL_INIT::h4fd290adf20d028a
   11c31    11c31      400     1         /home/ferrite/rusty1968/initiative/aspeed-rust/target/thumbv7em-none-eabihf/release/deps/libaspeed_ddk-ba190f65fcc992d2.rlib(aspeed_ddk-ba190f65fcc992d2.aspeed_ddk.609ead220c3d04df-cgu.02.rcgu.o):(.bss._ZN10aspeed_ddk3i2c11ast1060_i2c7I2C_BUF17hbc1a60ec0d3ee1bbE)
   11c31    11c31      400     1                 aspeed_ddk::i2c::ast1060_i2c::I2C_BUF::hbc1a60ec0d3ee1bb
   12031    12031        1     1         /home/ferrite/rusty1968/initiative/aspeed-rust/target/thumbv7em-none-eabihf/release/deps/libast1060_pac-5c3de1007aac7e1c.rlib(ast1060_pac-5c3de1007aac7e1c.ast1060_pac.c6d9d37f8e245957-cgu.0.rcgu.o):(.bss.DEVICE_PERIPHERALS)
   12031    12031        1     1                 DEVICE_PERIPHERALS
   12032    12032        2     1         . = ALIGN ( 4 )
   12034    12034        0     1         __ebss = .
   12034    12034        0     4 .uninit
   12034    12034        0     1         . = ALIGN ( 4 )
   12034    12034        0     1         . = ALIGN ( 4 )
   12034    12034        0     1 . = ALIGN ( 4 )
   12034    12034        0     1 __sheap = .
   12034    12034        0     1 
   12034    12034        0     1 
   12034    12034        0     1 
   12034    12034        0     1 
   12034    12034        0     1 
   12034    12034        0     1 
   12034    12034        0     1 
   12034    12034        0     1 
   12034    12034        0     1 
   12034    12034        0     1 
   12034    12034        0     1 
   12034    12034        0     1 PROVIDE ( hace = DefaultHandler )
   12034    12034        0     1 PROVIDE ( uart = DefaultHandler )
   12034    12034        0     1 PROVIDE ( gpio = DefaultHandler )
   12034    12034        0     1 PROVIDE ( scu = DefaultHandler )
   12034    12034        0     1 PROVIDE ( timer1 = DefaultHandler )
   12034    12034        0     1 PROVIDE ( timer2 = DefaultHandler )
   12034    12034        0     1 PROVIDE ( timer3 = DefaultHandler )
   12034    12034        0     1 PROVIDE ( timer4 = DefaultHandler )
   12034    12034        0     1 PROVIDE ( timer5 = DefaultHandler )
   12034    12034        0     1 PROVIDE ( timer6 = DefaultHandler )
   12034    12034        0     1 PROVIDE ( timer7 = DefaultHandler )
   12034    12034        0     1 PROVIDE ( wdt = DefaultHandler )
   12034    12034        0     1 PROVIDE ( fmc = DefaultHandler )
   12034    12034        0     1 PROVIDE ( sgpiom = DefaultHandler )
   12034    12034        0     1 PROVIDE ( uartdma = DefaultHandler )
   12034    12034        0     1 PROVIDE ( spi = DefaultHandler )
   12034    12034        0     1 PROVIDE ( spi1 = DefaultHandler )
   12034    12034        0     1 PROVIDE ( spipf1 = DefaultHandler )
   12034    12034        0     1 PROVIDE ( spipf2 = DefaultHandler )
   12034    12034        0     1 PROVIDE ( spipf3 = DefaultHandler )
   12034    12034        0     1 PROVIDE ( i3c = DefaultHandler )
   12034    12034        0     1 PROVIDE ( i3c1 = DefaultHandler )
   12034    12034        0     1 PROVIDE ( i3c2 = DefaultHandler )
   12034    12034        0     1 PROVIDE ( i3c3 = DefaultHandler )
   12034    12034        0     1 PROVIDE ( i2c = DefaultHandler )
   12034    12034        0     1 PROVIDE ( i2c1 = DefaultHandler )
   12034    12034        0     1 PROVIDE ( i2c2 = DefaultHandler )
   12034    12034        0     1 PROVIDE ( i2c3 = DefaultHandler )
   12034    12034        0     1 PROVIDE ( i2c4 = DefaultHandler )
   12034    12034        0     1 PROVIDE ( i2c5 = DefaultHandler )
   12034    12034        0     1 PROVIDE ( i2c6 = DefaultHandler )
   12034    12034        0     1 PROVIDE ( i2c7 = DefaultHandler )
   12034    12034        0     1 PROVIDE ( i2c8 = DefaultHandler )
   12034    12034        0     1 PROVIDE ( i2c9 = DefaultHandler )
   12034    12034        0     1 PROVIDE ( i2c10 = DefaultHandler )
   12034    12034        0     1 PROVIDE ( i2c11 = DefaultHandler )
   12034    12034        0     1 PROVIDE ( i2c12 = DefaultHandler )
   12034    12034        0     1 PROVIDE ( i2c13 = DefaultHandler )
   12034    12034        0     1 PROVIDE ( i2cfilter = DefaultHandler )
   12034    12034        0     1 
       0        0       93     1 .comment
       0        0       93     1         <internal>:(.comment)
       0        0       3a     1 .ARM.attributes
       0        0       3a     1         /home/ferrite/rusty1968/initiative/aspeed-rust/target/thumbv7em-none-eabihf/release/deps/aspeed_ddk-9593e973eaaa5586.aspeed_ddk.875e341dad0a8fe1-cgu.0.rcgu.o:(.ARM.attributes)
       0        0     4250     4 .debug_frame
       0        0       30     4         /home/ferrite/rusty1968/initiative/aspeed-rust/target/thumbv7em-none-eabihf/release/deps/libcortex_m_rt-7f0c5500b9abbdfd.rlib(cortex-m-rt.o):(.debug_frame)
      30       30      204     4         /home/ferrite/rusty1968/initiative/aspeed-rust/target/thumbv7em-none-eabihf/release/deps/libcortex_m-a377b1891f2e56a3.rlib(bin/thumbv7em-none-eabihf.o):(.debug_frame)
     234      234     38ec     4         /home/ferrite/.rustup/toolchains/nightly-2024-09-17-x86_64-unknown-linux-gnu/lib/rustlib/thumbv7em-none-eabihf/lib/libcore-6c7f6233b52d4c10.rlib(core-6c7f6233b52d4c10.core.852c90009024f853-cgu.0.rcgu.o):(.debug_frame)
    3b20     3b20       3c     4         /home/ferrite/.rustup/toolchains/nightly-2024-09-17-x86_64-unknown-linux-gnu/lib/rustlib/thumbv7em-none-eabihf/lib/libcompiler_builtins-53d64bf4200dbde9.rlib(compiler_builtins-53d64bf4200dbde9.compiler_builtins.cb1056fec953b42b-cgu.080.rcgu.o):(.debug_frame)
    3b5c     3b5c       38     4         /home/ferrite/.rustup/toolchains/nightly-2024-09-17-x86_64-unknown-linux-gnu/lib/rustlib/thumbv7em-none-eabihf/lib/libcompiler_builtins-53d64bf4200dbde9.rlib(compiler_builtins-53d64bf4200dbde9.compiler_builtins.cb1056fec953b42b-cgu.121.rcgu.o):(.debug_frame)
    3b94     3b94       34     4         /home/ferrite/.rustup/toolchains/nightly-2024-09-17-x86_64-unknown-linux-gnu/lib/rustlib/thumbv7em-none-eabihf/lib/libcompiler_builtins-53d64bf4200dbde9.rlib(compiler_builtins-53d64bf4200dbde9.compiler_builtins.cb1056fec953b42b-cgu.129.rcgu.o):(.debug_frame)
    3bc8     3bc8       30     4         /home/ferrite/.rustup/toolchains/nightly-2024-09-17-x86_64-unknown-linux-gnu/lib/rustlib/thumbv7em-none-eabihf/lib/libcompiler_builtins-53d64bf4200dbde9.rlib(compiler_builtins-53d64bf4200dbde9.compiler_builtins.cb1056fec953b42b-cgu.159.rcgu.o):(.debug_frame)
    3bf8     3bf8       30     4         /home/ferrite/.rustup/toolchains/nightly-2024-09-17-x86_64-unknown-linux-gnu/lib/rustlib/thumbv7em-none-eabihf/lib/libcompiler_builtins-53d64bf4200dbde9.rlib(compiler_builtins-53d64bf4200dbde9.compiler_builtins.cb1056fec953b42b-cgu.175.rcgu.o):(.debug_frame)
    3c28     3c28       38     4         /home/ferrite/.rustup/toolchains/nightly-2024-09-17-x86_64-unknown-linux-gnu/lib/rustlib/thumbv7em-none-eabihf/lib/libcompiler_builtins-53d64bf4200dbde9.rlib(compiler_builtins-53d64bf4200dbde9.compiler_builtins.cb1056fec953b42b-cgu.228.rcgu.o):(.debug_frame)
    3c60     3c60       24     4         /home/ferrite/.rustup/toolchains/nightly-2024-09-17-x86_64-unknown-linux-gnu/lib/rustlib/thumbv7em-none-eabihf/lib/libcompiler_builtins-53d64bf4200dbde9.rlib(compiler_builtins-53d64bf4200dbde9.compiler_builtins.cb1056fec953b42b-cgu.235.rcgu.o):(.debug_frame)
    3c84     3c84      1c0     4         /home/ferrite/.rustup/toolchains/nightly-2024-09-17-x86_64-unknown-linux-gnu/lib/rustlib/thumbv7em-none-eabihf/lib/libcompiler_builtins-53d64bf4200dbde9.rlib(compiler_builtins-53d64bf4200dbde9.compiler_builtins.cb1056fec953b42b-cgu.010.rcgu.o):(.debug_frame)
    3e44     3e44       24     4         /home/ferrite/.rustup/toolchains/nightly-2024-09-17-x86_64-unknown-linux-gnu/lib/rustlib/thumbv7em-none-eabihf/lib/libcompiler_builtins-53d64bf4200dbde9.rlib(compiler_builtins-53d64bf4200dbde9.compiler_builtins.cb1056fec953b42b-cgu.237.rcgu.o):(.debug_frame)
    3e68     3e68       90     4         /home/ferrite/.rustup/toolchains/nightly-2024-09-17-x86_64-unknown-linux-gnu/lib/rustlib/thumbv7em-none-eabihf/lib/libcompiler_builtins-53d64bf4200dbde9.rlib(compiler_builtins-53d64bf4200dbde9.compiler_builtins.cb1056fec953b42b-cgu.004.rcgu.o):(.debug_frame)
    3ef8     3ef8       c4     4         /home/ferrite/.rustup/toolchains/nightly-2024-09-17-x86_64-unknown-linux-gnu/lib/rustlib/thumbv7em-none-eabihf/lib/libcompiler_builtins-53d64bf4200dbde9.rlib(compiler_builtins-53d64bf4200dbde9.compiler_builtins.cb1056fec953b42b-cgu.019.rcgu.o):(.debug_frame)
    3fbc     3fbc       30     4         /home/ferrite/.rustup/toolchains/nightly-2024-09-17-x86_64-unknown-linux-gnu/lib/rustlib/thumbv7em-none-eabihf/lib/libcompiler_builtins-53d64bf4200dbde9.rlib(compiler_builtins-53d64bf4200dbde9.compiler_builtins.cb1056fec953b42b-cgu.248.rcgu.o):(.debug_frame)
    3fec     3fec       24     4         /home/ferrite/.rustup/toolchains/nightly-2024-09-17-x86_64-unknown-linux-gnu/lib/rustlib/thumbv7em-none-eabihf/lib/libcompiler_builtins-53d64bf4200dbde9.rlib(compiler_builtins-53d64bf4200dbde9.compiler_builtins.cb1056fec953b42b-cgu.251.rcgu.o):(.debug_frame)
    4010     4010       30     4         /home/ferrite/.rustup/toolchains/nightly-2024-09-17-x86_64-unknown-linux-gnu/lib/rustlib/thumbv7em-none-eabihf/lib/libcompiler_builtins-53d64bf4200dbde9.rlib(compiler_builtins-53d64bf4200dbde9.compiler_builtins.cb1056fec953b42b-cgu.269.rcgu.o):(.debug_frame)
    4040     4040       64     4         /home/ferrite/.rustup/toolchains/nightly-2024-09-17-x86_64-unknown-linux-gnu/lib/rustlib/thumbv7em-none-eabihf/lib/libcompiler_builtins-53d64bf4200dbde9.rlib(compiler_builtins-53d64bf4200dbde9.compiler_builtins.cb1056fec953b42b-cgu.005.rcgu.o):(.debug_frame)
    40a4     40a4       24     4         /home/ferrite/.rustup/toolchains/nightly-2024-09-17-x86_64-unknown-linux-gnu/lib/rustlib/thumbv7em-none-eabihf/lib/libcompiler_builtins-53d64bf4200dbde9.rlib(compiler_builtins-53d64bf4200dbde9.compiler_builtins.cb1056fec953b42b-cgu.279.rcgu.o):(.debug_frame)
    40c8     40c8       30     4         /home/ferrite/.rustup/toolchains/nightly-2024-09-17-x86_64-unknown-linux-gnu/lib/rustlib/thumbv7em-none-eabihf/lib/libcompiler_builtins-53d64bf4200dbde9.rlib(compiler_builtins-53d64bf4200dbde9.compiler_builtins.cb1056fec953b42b-cgu.317.rcgu.o):(.debug_frame)
    40f8     40f8       34     4         /home/ferrite/.rustup/toolchains/nightly-2024-09-17-x86_64-unknown-linux-gnu/lib/rustlib/thumbv7em-none-eabihf/lib/libcompiler_builtins-53d64bf4200dbde9.rlib(compiler_builtins-53d64bf4200dbde9.compiler_builtins.cb1056fec953b42b-cgu.324.rcgu.o):(.debug_frame)
    412c     412c       34     4         /home/ferrite/.rustup/toolchains/nightly-2024-09-17-x86_64-unknown-linux-gnu/lib/rustlib/thumbv7em-none-eabihf/lib/libcompiler_builtins-53d64bf4200dbde9.rlib(compiler_builtins-53d64bf4200dbde9.compiler_builtins.cb1056fec953b42b-cgu.335.rcgu.o):(.debug_frame)
    4160     4160       38     4         /home/ferrite/.rustup/toolchains/nightly-2024-09-17-x86_64-unknown-linux-gnu/lib/rustlib/thumbv7em-none-eabihf/lib/libcompiler_builtins-53d64bf4200dbde9.rlib(compiler_builtins-53d64bf4200dbde9.compiler_builtins.cb1056fec953b42b-cgu.337.rcgu.o):(.debug_frame)
    4198     4198       24     4         /home/ferrite/.rustup/toolchains/nightly-2024-09-17-x86_64-unknown-linux-gnu/lib/rustlib/thumbv7em-none-eabihf/lib/libcompiler_builtins-53d64bf4200dbde9.rlib(compiler_builtins-53d64bf4200dbde9.compiler_builtins.cb1056fec953b42b-cgu.348.rcgu.o):(.debug_frame)
    41bc     41bc       30     4         /home/ferrite/.rustup/toolchains/nightly-2024-09-17-x86_64-unknown-linux-gnu/lib/rustlib/thumbv7em-none-eabihf/lib/libcompiler_builtins-53d64bf4200dbde9.rlib(compiler_builtins-53d64bf4200dbde9.compiler_builtins.cb1056fec953b42b-cgu.210.rcgu.o):(.debug_frame)
    41ec     41ec       64     4         /home/ferrite/.rustup/toolchains/nightly-2024-09-17-x86_64-unknown-linux-gnu/lib/rustlib/thumbv7em-none-eabihf/lib/libcompiler_builtins-53d64bf4200dbde9.rlib(compiler_builtins-53d64bf4200dbde9.compiler_builtins.cb1056fec953b42b-cgu.008.rcgu.o):(.debug_frame)
       0        0       6d     1 .debug_loc
       0        0       6d     1         /home/ferrite/rusty1968/initiative/aspeed-rust/target/thumbv7em-none-eabihf/release/deps/libcortex_m-a377b1891f2e56a3.rlib(bin/thumbv7em-none-eabihf.o):(.debug_loc)
       0        0     1275     1 .debug_abbrev
       0        0      1b9     1         /home/ferrite/rusty1968/initiative/aspeed-rust/target/thumbv7em-none-eabihf/release/deps/libcortex_m-a377b1891f2e56a3.rlib(bin/thumbv7em-none-eabihf.o):(.debug_abbrev)
     1b9      1b9      256     1         /home/ferrite/.rustup/toolchains/nightly-2024-09-17-x86_64-unknown-linux-gnu/lib/rustlib/thumbv7em-none-eabihf/lib/libcore-6c7f6233b52d4c10.rlib(core-6c7f6233b52d4c10.core.852c90009024f853-cgu.0.rcgu.o):(.debug_abbrev)
     40f      40f       5b     1         /home/ferrite/.rustup/toolchains/nightly-2024-09-17-x86_64-unknown-linux-gnu/lib/rustlib/thumbv7em-none-eabihf/lib/libcompiler_builtins-53d64bf4200dbde9.rlib(compiler_builtins-53d64bf4200dbde9.compiler_builtins.cb1056fec953b42b-cgu.080.rcgu.o):(.debug_abbrev)
     46a      46a       9b     1         /home/ferrite/.rustup/toolchains/nightly-2024-09-17-x86_64-unknown-linux-gnu/lib/rustlib/thumbv7em-none-eabihf/lib/libcompiler_builtins-53d64bf4200dbde9.rlib(compiler_builtins-53d64bf4200dbde9.compiler_builtins.cb1056fec953b42b-cgu.121.rcgu.o):(.debug_abbrev)
     505      505       ae     1         /home/ferrite/.rustup/toolchains/nightly-2024-09-17-x86_64-unknown-linux-gnu/lib/rustlib/thumbv7em-none-eabihf/lib/libcompiler_builtins-53d64bf4200dbde9.rlib(compiler_builtins-53d64bf4200dbde9.compiler_builtins.cb1056fec953b42b-cgu.129.rcgu.o):(.debug_abbrev)
     5b3      5b3       a8     1         /home/ferrite/.rustup/toolchains/nightly-2024-09-17-x86_64-unknown-linux-gnu/lib/rustlib/thumbv7em-none-eabihf/lib/libcompiler_builtins-53d64bf4200dbde9.rlib(compiler_builtins-53d64bf4200dbde9.compiler_builtins.cb1056fec953b42b-cgu.159.rcgu.o):(.debug_abbrev)
     65b      65b       a8     1         /home/ferrite/.rustup/toolchains/nightly-2024-09-17-x86_64-unknown-linux-gnu/lib/rustlib/thumbv7em-none-eabihf/lib/libcompiler_builtins-53d64bf4200dbde9.rlib(compiler_builtins-53d64bf4200dbde9.compiler_builtins.cb1056fec953b42b-cgu.175.rcgu.o):(.debug_abbrev)
     703      703       9b     1         /home/ferrite/.rustup/toolchains/nightly-2024-09-17-x86_64-unknown-linux-gnu/lib/rustlib/thumbv7em-none-eabihf/lib/libcompiler_builtins-53d64bf4200dbde9.rlib(compiler_builtins-53d64bf4200dbde9.compiler_builtins.cb1056fec953b42b-cgu.228.rcgu.o):(.debug_abbrev)
     79e      79e       5f     1         /home/ferrite/.rustup/toolchains/nightly-2024-09-17-x86_64-unknown-linux-gnu/lib/rustlib/thumbv7em-none-eabihf/lib/libcompiler_builtins-53d64bf4200dbde9.rlib(compiler_builtins-53d64bf4200dbde9.compiler_builtins.cb1056fec953b42b-cgu.235.rcgu.o):(.debug_abbrev)
     7fd      7fd       bf     1         /home/ferrite/.rustup/toolchains/nightly-2024-09-17-x86_64-unknown-linux-gnu/lib/rustlib/thumbv7em-none-eabihf/lib/libcompiler_builtins-53d64bf4200dbde9.rlib(compiler_builtins-53d64bf4200dbde9.compiler_builtins.cb1056fec953b42b-cgu.010.rcgu.o):(.debug_abbrev)
     8bc      8bc       2e     1         /home/ferrite/.rustup/toolchains/nightly-2024-09-17-x86_64-unknown-linux-gnu/lib/rustlib/thumbv7em-none-eabihf/lib/libcompiler_builtins-53d64bf4200dbde9.rlib(compiler_builtins-53d64bf4200dbde9.compiler_builtins.cb1056fec953b42b-cgu.237.rcgu.o):(.debug_abbrev)
     8ea      8ea      15b     1         /home/ferrite/.rustup/toolchains/nightly-2024-09-17-x86_64-unknown-linux-gnu/lib/rustlib/thumbv7em-none-eabihf/lib/libcompiler_builtins-53d64bf4200dbde9.rlib(compiler_builtins-53d64bf4200dbde9.compiler_builtins.cb1056fec953b42b-cgu.004.rcgu.o):(.debug_abbrev)
     a45      a45       f8     1         /home/ferrite/.rustup/toolchains/nightly-2024-09-17-x86_64-unknown-linux-gnu/lib/rustlib/thumbv7em-none-eabihf/lib/libcompiler_builtins-53d64bf4200dbde9.rlib(compiler_builtins-53d64bf4200dbde9.compiler_builtins.cb1056fec953b42b-cgu.019.rcgu.o):(.debug_abbrev)
     b3d      b3d       9b     1         /home/ferrite/.rustup/toolchains/nightly-2024-09-17-x86_64-unknown-linux-gnu/lib/rustlib/thumbv7em-none-eabihf/lib/libcompiler_builtins-53d64bf4200dbde9.rlib(compiler_builtins-53d64bf4200dbde9.compiler_builtins.cb1056fec953b42b-cgu.248.rcgu.o):(.debug_abbrev)
     bd8      bd8       5f     1         /home/ferrite/.rustup/toolchains/nightly-2024-09-17-x86_64-unknown-linux-gnu/lib/rustlib/thumbv7em-none-eabihf/lib/libcompiler_builtins-53d64bf4200dbde9.rlib(compiler_builtins-53d64bf4200dbde9.compiler_builtins.cb1056fec953b42b-cgu.251.rcgu.o):(.debug_abbrev)
     c37      c37       2e     1         /home/ferrite/.rustup/toolchains/nightly-2024-09-17-x86_64-unknown-linux-gnu/lib/rustlib/thumbv7em-none-eabihf/lib/libcompiler_builtins-53d64bf4200dbde9.rlib(compiler_builtins-53d64bf4200dbde9.compiler_builtins.cb1056fec953b42b-cgu.269.rcgu.o):(.debug_abbrev)
     c65      c65      177     1         /home/ferrite/.rustup/toolchains/nightly-2024-09-17-x86_64-unknown-linux-gnu/lib/rustlib/thumbv7em-none-eabihf/lib/libcompiler_builtins-53d64bf4200dbde9.rlib(compiler_builtins-53d64bf4200dbde9.compiler_builtins.cb1056fec953b42b-cgu.005.rcgu.o):(.debug_abbrev)
     ddc      ddc       cc     1         /home/ferrite/.rustup/toolchains/nightly-2024-09-17-x86_64-unknown-linux-gnu/lib/rustlib/thumbv7em-none-eabihf/lib/libcompiler_builtins-53d64bf4200dbde9.rlib(compiler_builtins-53d64bf4200dbde9.compiler_builtins.cb1056fec953b42b-cgu.279.rcgu.o):(.debug_abbrev)
     ea8      ea8       cc     1         /home/ferrite/.rustup/toolchains/nightly-2024-09-17-x86_64-unknown-linux-gnu/lib/rustlib/thumbv7em-none-eabihf/lib/libcompiler_builtins-53d64bf4200dbde9.rlib(compiler_builtins-53d64bf4200dbde9.compiler_builtins.cb1056fec953b42b-cgu.317.rcgu.o):(.debug_abbrev)
     f74      f74       bd     1         /home/ferrite/.rustup/toolchains/nightly-2024-09-17-x86_64-unknown-linux-gnu/lib/rustlib/thumbv7em-none-eabihf/lib/libcompiler_builtins-53d64bf4200dbde9.rlib(compiler_builtins-53d64bf4200dbde9.compiler_builtins.cb1056fec953b42b-cgu.324.rcgu.o):(.debug_abbrev)
    1031     1031       7d     1         /home/ferrite/.rustup/toolchains/nightly-2024-09-17-x86_64-unknown-linux-gnu/lib/rustlib/thumbv7em-none-eabihf/lib/libcompiler_builtins-53d64bf4200dbde9.rlib(compiler_builtins-53d64bf4200dbde9.compiler_builtins.cb1056fec953b42b-cgu.335.rcgu.o):(.debug_abbrev)
    10ae     10ae       9f     1         /home/ferrite/.rustup/toolchains/nightly-2024-09-17-x86_64-unknown-linux-gnu/lib/rustlib/thumbv7em-none-eabihf/lib/libcompiler_builtins-53d64bf4200dbde9.rlib(compiler_builtins-53d64bf4200dbde9.compiler_builtins.cb1056fec953b42b-cgu.337.rcgu.o):(.debug_abbrev)
    114d     114d       2e     1         /home/ferrite/.rustup/toolchains/nightly-2024-09-17-x86_64-unknown-linux-gnu/lib/rustlib/thumbv7em-none-eabihf/lib/libcompiler_builtins-53d64bf4200dbde9.rlib(compiler_builtins-53d64bf4200dbde9.compiler_builtins.cb1056fec953b42b-cgu.348.rcgu.o):(.debug_abbrev)
    117b     117b       5f     1         /home/ferrite/.rustup/toolchains/nightly-2024-09-17-x86_64-unknown-linux-gnu/lib/rustlib/thumbv7em-none-eabihf/lib/libcompiler_builtins-53d64bf4200dbde9.rlib(compiler_builtins-53d64bf4200dbde9.compiler_builtins.cb1056fec953b42b-cgu.210.rcgu.o):(.debug_abbrev)
    11da     11da       9b     1         /home/ferrite/.rustup/toolchains/nightly-2024-09-17-x86_64-unknown-linux-gnu/lib/rustlib/thumbv7em-none-eabihf/lib/libcompiler_builtins-53d64bf4200dbde9.rlib(compiler_builtins-53d64bf4200dbde9.compiler_builtins.cb1056fec953b42b-cgu.008.rcgu.o):(.debug_abbrev)
       0        0    22a70     1 .debug_info
       0        0      a0d     1         /home/ferrite/rusty1968/initiative/aspeed-rust/target/thumbv7em-none-eabihf/release/deps/libcortex_m-a377b1891f2e56a3.rlib(bin/thumbv7em-none-eabihf.o):(.debug_info)
     a0d      a0d    1dcc6     1         /home/ferrite/.rustup/toolchains/nightly-2024-09-17-x86_64-unknown-linux-gnu/lib/rustlib/thumbv7em-none-eabihf/lib/libcore-6c7f6233b52d4c10.rlib(core-6c7f6233b52d4c10.core.852c90009024f853-cgu.0.rcgu.o):(.debug_info)
   1e6d3    1e6d3       86     1         /home/ferrite/.rustup/toolchains/nightly-2024-09-17-x86_64-unknown-linux-gnu/lib/rustlib/thumbv7em-none-eabihf/lib/libcompiler_builtins-53d64bf4200dbde9.rlib(compiler_builtins-53d64bf4200dbde9.compiler_builtins.cb1056fec953b42b-cgu.080.rcgu.o):(.debug_info)
   1e759    1e759      196     1         /home/ferrite/.rustup/toolchains/nightly-2024-09-17-x86_64-unknown-linux-gnu/lib/rustlib/thumbv7em-none-eabihf/lib/libcompiler_builtins-53d64bf4200dbde9.rlib(compiler_builtins-53d64bf4200dbde9.compiler_builtins.cb1056fec953b42b-cgu.121.rcgu.o):(.debug_info)
   1e8ef    1e8ef      174     1         /home/ferrite/.rustup/toolchains/nightly-2024-09-17-x86_64-unknown-linux-gnu/lib/rustlib/thumbv7em-none-eabihf/lib/libcompiler_builtins-53d64bf4200dbde9.rlib(compiler_builtins-53d64bf4200dbde9.compiler_builtins.cb1056fec953b42b-cgu.129.rcgu.o):(.debug_info)
   1ea63    1ea63      17a     1         /home/ferrite/.rustup/toolchains/nightly-2024-09-17-x86_64-unknown-linux-gnu/lib/rustlib/thumbv7em-none-eabihf/lib/libcompiler_builtins-53d64bf4200dbde9.rlib(compiler_builtins-53d64bf4200dbde9.compiler_builtins.cb1056fec953b42b-cgu.159.rcgu.o):(.debug_info)
   1ebdd    1ebdd      17a     1         /home/ferrite/.rustup/toolchains/nightly-2024-09-17-x86_64-unknown-linux-gnu/lib/rustlib/thumbv7em-none-eabihf/lib/libcompiler_builtins-53d64bf4200dbde9.rlib(compiler_builtins-53d64bf4200dbde9.compiler_builtins.cb1056fec953b42b-cgu.175.rcgu.o):(.debug_info)
   1ed57    1ed57      1dc     1         /home/ferrite/.rustup/toolchains/nightly-2024-09-17-x86_64-unknown-linux-gnu/lib/rustlib/thumbv7em-none-eabihf/lib/libcompiler_builtins-53d64bf4200dbde9.rlib(compiler_builtins-53d64bf4200dbde9.compiler_builtins.cb1056fec953b42b-cgu.228.rcgu.o):(.debug_info)
   1ef33    1ef33       95     1         /home/ferrite/.rustup/toolchains/nightly-2024-09-17-x86_64-unknown-linux-gnu/lib/rustlib/thumbv7em-none-eabihf/lib/libcompiler_builtins-53d64bf4200dbde9.rlib(compiler_builtins-53d64bf4200dbde9.compiler_builtins.cb1056fec953b42b-cgu.235.rcgu.o):(.debug_info)
   1efc8    1efc8      89f     1         /home/ferrite/.rustup/toolchains/nightly-2024-09-17-x86_64-unknown-linux-gnu/lib/rustlib/thumbv7em-none-eabihf/lib/libcompiler_builtins-53d64bf4200dbde9.rlib(compiler_builtins-53d64bf4200dbde9.compiler_builtins.cb1056fec953b42b-cgu.010.rcgu.o):(.debug_info)
   1f867    1f867       51     1         /home/ferrite/.rustup/toolchains/nightly-2024-09-17-x86_64-unknown-linux-gnu/lib/rustlib/thumbv7em-none-eabihf/lib/libcompiler_builtins-53d64bf4200dbde9.rlib(compiler_builtins-53d64bf4200dbde9.compiler_builtins.cb1056fec953b42b-cgu.237.rcgu.o):(.debug_info)
   1f8b8    1f8b8     108a     1         /home/ferrite/.rustup/toolchains/nightly-2024-09-17-x86_64-unknown-linux-gnu/lib/rustlib/thumbv7em-none-eabihf/lib/libcompiler_builtins-53d64bf4200dbde9.rlib(compiler_builtins-53d64bf4200dbde9.compiler_builtins.cb1056fec953b42b-cgu.004.rcgu.o):(.debug_info)
   20942    20942      22d     1         /home/ferrite/.rustup/toolchains/nightly-2024-09-17-x86_64-unknown-linux-gnu/lib/rustlib/thumbv7em-none-eabihf/lib/libcompiler_builtins-53d64bf4200dbde9.rlib(compiler_builtins-53d64bf4200dbde9.compiler_builtins.cb1056fec953b42b-cgu.019.rcgu.o):(.debug_info)
   20b6f    20b6f      14b     1         /home/ferrite/.rustup/toolchains/nightly-2024-09-17-x86_64-unknown-linux-gnu/lib/rustlib/thumbv7em-none-eabihf/lib/libcompiler_builtins-53d64bf4200dbde9.rlib(compiler_builtins-53d64bf4200dbde9.compiler_builtins.cb1056fec953b42b-cgu.248.rcgu.o):(.debug_info)
   20cba    20cba       95     1         /home/ferrite/.rustup/toolchains/nightly-2024-09-17-x86_64-unknown-linux-gnu/lib/rustlib/thumbv7em-none-eabihf/lib/libcompiler_builtins-53d64bf4200dbde9.rlib(compiler_builtins-53d64bf4200dbde9.compiler_builtins.cb1056fec953b42b-cgu.251.rcgu.o):(.debug_info)
   20d4f    20d4f       51     1         /home/ferrite/.rustup/toolchains/nightly-2024-09-17-x86_64-unknown-linux-gnu/lib/rustlib/thumbv7em-none-eabihf/lib/libcompiler_builtins-53d64bf4200dbde9.rlib(compiler_builtins-53d64bf4200dbde9.compiler_builtins.cb1056fec953b42b-cgu.269.rcgu.o):(.debug_info)
   20da0    20da0      faf     1         /home/ferrite/.rustup/toolchains/nightly-2024-09-17-x86_64-unknown-linux-gnu/lib/rustlib/thumbv7em-none-eabihf/lib/libcompiler_builtins-53d64bf4200dbde9.rlib(compiler_builtins-53d64bf4200dbde9.compiler_builtins.cb1056fec953b42b-cgu.005.rcgu.o):(.debug_info)
   21d4f    21d4f      1fa     1         /home/ferrite/.rustup/toolchains/nightly-2024-09-17-x86_64-unknown-linux-gnu/lib/rustlib/thumbv7em-none-eabihf/lib/libcompiler_builtins-53d64bf4200dbde9.rlib(compiler_builtins-53d64bf4200dbde9.compiler_builtins.cb1056fec953b42b-cgu.279.rcgu.o):(.debug_info)
   21f49    21f49      1e0     1         /home/ferrite/.rustup/toolchains/nightly-2024-09-17-x86_64-unknown-linux-gnu/lib/rustlib/thumbv7em-none-eabihf/lib/libcompiler_builtins-53d64bf4200dbde9.rlib(compiler_builtins-53d64bf4200dbde9.compiler_builtins.cb1056fec953b42b-cgu.317.rcgu.o):(.debug_info)
   22129    22129      158     1         /home/ferrite/.rustup/toolchains/nightly-2024-09-17-x86_64-unknown-linux-gnu/lib/rustlib/thumbv7em-none-eabihf/lib/libcompiler_builtins-53d64bf4200dbde9.rlib(compiler_builtins-53d64bf4200dbde9.compiler_builtins.cb1056fec953b42b-cgu.324.rcgu.o):(.debug_info)
   22281    22281       ec     1         /home/ferrite/.rustup/toolchains/nightly-2024-09-17-x86_64-unknown-linux-gnu/lib/rustlib/thumbv7em-none-eabihf/lib/libcompiler_builtins-53d64bf4200dbde9.rlib(compiler_builtins-53d64bf4200dbde9.compiler_builtins.cb1056fec953b42b-cgu.335.rcgu.o):(.debug_info)
   2236d    2236d      186     1         /home/ferrite/.rustup/toolchains/nightly-2024-09-17-x86_64-unknown-linux-gnu/lib/rustlib/thumbv7em-none-eabihf/lib/libcompiler_builtins-53d64bf4200dbde9.rlib(compiler_builtins-53d64bf4200dbde9.compiler_builtins.cb1056fec953b42b-cgu.337.rcgu.o):(.debug_info)
   224f3    224f3       4b     1         /home/ferrite/.rustup/toolchains/nightly-2024-09-17-x86_64-unknown-linux-gnu/lib/rustlib/thumbv7em-none-eabihf/lib/libcompiler_builtins-53d64bf4200dbde9.rlib(compiler_builtins-53d64bf4200dbde9.compiler_builtins.cb1056fec953b42b-cgu.348.rcgu.o):(.debug_info)
   2253e    2253e       a1     1         /home/ferrite/.rustup/toolchains/nightly-2024-09-17-x86_64-unknown-linux-gnu/lib/rustlib/thumbv7em-none-eabihf/lib/libcompiler_builtins-53d64bf4200dbde9.rlib(compiler_builtins-53d64bf4200dbde9.compiler_builtins.cb1056fec953b42b-cgu.210.rcgu.o):(.debug_info)
   225df    225df      491     1         /home/ferrite/.rustup/toolchains/nightly-2024-09-17-x86_64-unknown-linux-gnu/lib/rustlib/thumbv7em-none-eabihf/lib/libcompiler_builtins-53d64bf4200dbde9.rlib(compiler_builtins-53d64bf4200dbde9.compiler_builtins.cb1056fec953b42b-cgu.008.rcgu.o):(.debug_info)
       0        0     1378     1 .debug_aranges
       0        0      110     1         /home/ferrite/rusty1968/initiative/aspeed-rust/target/thumbv7em-none-eabihf/release/deps/libcortex_m-a377b1891f2e56a3.rlib(bin/thumbv7em-none-eabihf.o):(.debug_aranges)
     110      110      ee0     1         /home/ferrite/.rustup/toolchains/nightly-2024-09-17-x86_64-unknown-linux-gnu/lib/rustlib/thumbv7em-none-eabihf/lib/libcore-6c7f6233b52d4c10.rlib(core-6c7f6233b52d4c10.core.852c90009024f853-cgu.0.rcgu.o):(.debug_aranges)
     ff0      ff0       20     1         /home/ferrite/.rustup/toolchains/nightly-2024-09-17-x86_64-unknown-linux-gnu/lib/rustlib/thumbv7em-none-eabihf/lib/libcompiler_builtins-53d64bf4200dbde9.rlib(compiler_builtins-53d64bf4200dbde9.compiler_builtins.cb1056fec953b42b-cgu.080.rcgu.o):(.debug_aranges)
    1010     1010       20     1         /home/ferrite/.rustup/toolchains/nightly-2024-09-17-x86_64-unknown-linux-gnu/lib/rustlib/thumbv7em-none-eabihf/lib/libcompiler_builtins-53d64bf4200dbde9.rlib(compiler_builtins-53d64bf4200dbde9.compiler_builtins.cb1056fec953b42b-cgu.121.rcgu.o):(.debug_aranges)
    1030     1030       20     1         /home/ferrite/.rustup/toolchains/nightly-2024-09-17-x86_64-unknown-linux-gnu/lib/rustlib/thumbv7em-none-eabihf/lib/libcompiler_builtins-53d64bf4200dbde9.rlib(compiler_builtins-53d64bf4200dbde9.compiler_builtins.cb1056fec953b42b-cgu.129.rcgu.o):(.debug_aranges)
    1050     1050       20     1         /home/ferrite/.rustup/toolchains/nightly-2024-09-17-x86_64-unknown-linux-gnu/lib/rustlib/thumbv7em-none-eabihf/lib/libcompiler_builtins-53d64bf4200dbde9.rlib(compiler_builtins-53d64bf4200dbde9.compiler_builtins.cb1056fec953b42b-cgu.159.rcgu.o):(.debug_aranges)
    1070     1070       20     1         /home/ferrite/.rustup/toolchains/nightly-2024-09-17-x86_64-unknown-linux-gnu/lib/rustlib/thumbv7em-none-eabihf/lib/libcompiler_builtins-53d64bf4200dbde9.rlib(compiler_builtins-53d64bf4200dbde9.compiler_builtins.cb1056fec953b42b-cgu.175.rcgu.o):(.debug_aranges)
    1090     1090       20     1         /home/ferrite/.rustup/toolchains/nightly-2024-09-17-x86_64-unknown-linux-gnu/lib/rustlib/thumbv7em-none-eabihf/lib/libcompiler_builtins-53d64bf4200dbde9.rlib(compiler_builtins-53d64bf4200dbde9.compiler_builtins.cb1056fec953b42b-cgu.228.rcgu.o):(.debug_aranges)
    10b0     10b0       20     1         /home/ferrite/.rustup/toolchains/nightly-2024-09-17-x86_64-unknown-linux-gnu/lib/rustlib/thumbv7em-none-eabihf/lib/libcompiler_builtins-53d64bf4200dbde9.rlib(compiler_builtins-53d64bf4200dbde9.compiler_builtins.cb1056fec953b42b-cgu.235.rcgu.o):(.debug_aranges)
    10d0     10d0       78     1         /home/ferrite/.rustup/toolchains/nightly-2024-09-17-x86_64-unknown-linux-gnu/lib/rustlib/thumbv7em-none-eabihf/lib/libcompiler_builtins-53d64bf4200dbde9.rlib(compiler_builtins-53d64bf4200dbde9.compiler_builtins.cb1056fec953b42b-cgu.010.rcgu.o):(.debug_aranges)
    1148     1148       20     1         /home/ferrite/.rustup/toolchains/nightly-2024-09-17-x86_64-unknown-linux-gnu/lib/rustlib/thumbv7em-none-eabihf/lib/libcompiler_builtins-53d64bf4200dbde9.rlib(compiler_builtins-53d64bf4200dbde9.compiler_builtins.cb1056fec953b42b-cgu.237.rcgu.o):(.debug_aranges)
    1168     1168       30     1         /home/ferrite/.rustup/toolchains/nightly-2024-09-17-x86_64-unknown-linux-gnu/lib/rustlib/thumbv7em-none-eabihf/lib/libcompiler_builtins-53d64bf4200dbde9.rlib(compiler_builtins-53d64bf4200dbde9.compiler_builtins.cb1056fec953b42b-cgu.004.rcgu.o):(.debug_aranges)
    1198     1198       50     1         /home/ferrite/.rustup/toolchains/nightly-2024-09-17-x86_64-unknown-linux-gnu/lib/rustlib/thumbv7em-none-eabihf/lib/libcompiler_builtins-53d64bf4200dbde9.rlib(compiler_builtins-53d64bf4200dbde9.compiler_builtins.cb1056fec953b42b-cgu.019.rcgu.o):(.debug_aranges)
    11e8     11e8       20     1         /home/ferrite/.rustup/toolchains/nightly-2024-09-17-x86_64-unknown-linux-gnu/lib/rustlib/thumbv7em-none-eabihf/lib/libcompiler_builtins-53d64bf4200dbde9.rlib(compiler_builtins-53d64bf4200dbde9.compiler_builtins.cb1056fec953b42b-cgu.248.rcgu.o):(.debug_aranges)
    1208     1208       20     1         /home/ferrite/.rustup/toolchains/nightly-2024-09-17-x86_64-unknown-linux-gnu/lib/rustlib/thumbv7em-none-eabihf/lib/libcompiler_builtins-53d64bf4200dbde9.rlib(compiler_builtins-53d64bf4200dbde9.compiler_builtins.cb1056fec953b42b-cgu.251.rcgu.o):(.debug_aranges)
    1228     1228       20     1         /home/ferrite/.rustup/toolchains/nightly-2024-09-17-x86_64-unknown-linux-gnu/lib/rustlib/thumbv7em-none-eabihf/lib/libcompiler_builtins-53d64bf4200dbde9.rlib(compiler_builtins-53d64bf4200dbde9.compiler_builtins.cb1056fec953b42b-cgu.269.rcgu.o):(.debug_aranges)
    1248     1248       28     1         /home/ferrite/.rustup/toolchains/nightly-2024-09-17-x86_64-unknown-linux-gnu/lib/rustlib/thumbv7em-none-eabihf/lib/libcompiler_builtins-53d64bf4200dbde9.rlib(compiler_builtins-53d64bf4200dbde9.compiler_builtins.cb1056fec953b42b-cgu.005.rcgu.o):(.debug_aranges)
    1270     1270       20     1         /home/ferrite/.rustup/toolchains/nightly-2024-09-17-x86_64-unknown-linux-gnu/lib/rustlib/thumbv7em-none-eabihf/lib/libcompiler_builtins-53d64bf4200dbde9.rlib(compiler_builtins-53d64bf4200dbde9.compiler_builtins.cb1056fec953b42b-cgu.279.rcgu.o):(.debug_aranges)
    1290     1290       20     1         /home/ferrite/.rustup/toolchains/nightly-2024-09-17-x86_64-unknown-linux-gnu/lib/rustlib/thumbv7em-none-eabihf/lib/libcompiler_builtins-53d64bf4200dbde9.rlib(compiler_builtins-53d64bf4200dbde9.compiler_builtins.cb1056fec953b42b-cgu.317.rcgu.o):(.debug_aranges)
    12b0     12b0       20     1         /home/ferrite/.rustup/toolchains/nightly-2024-09-17-x86_64-unknown-linux-gnu/lib/rustlib/thumbv7em-none-eabihf/lib/libcompiler_builtins-53d64bf4200dbde9.rlib(compiler_builtins-53d64bf4200dbde9.compiler_builtins.cb1056fec953b42b-cgu.324.rcgu.o):(.debug_aranges)
    12d0     12d0       20     1         /home/ferrite/.rustup/toolchains/nightly-2024-09-17-x86_64-unknown-linux-gnu/lib/rustlib/thumbv7em-none-eabihf/lib/libcompiler_builtins-53d64bf4200dbde9.rlib(compiler_builtins-53d64bf4200dbde9.compiler_builtins.cb1056fec953b42b-cgu.335.rcgu.o):(.debug_aranges)
    12f0     12f0       20     1         /home/ferrite/.rustup/toolchains/nightly-2024-09-17-x86_64-unknown-linux-gnu/lib/rustlib/thumbv7em-none-eabihf/lib/libcompiler_builtins-53d64bf4200dbde9.rlib(compiler_builtins-53d64bf4200dbde9.compiler_builtins.cb1056fec953b42b-cgu.337.rcgu.o):(.debug_aranges)
    1310     1310       20     1         /home/ferrite/.rustup/toolchains/nightly-2024-09-17-x86_64-unknown-linux-gnu/lib/rustlib/thumbv7em-none-eabihf/lib/libcompiler_builtins-53d64bf4200dbde9.rlib(compiler_builtins-53d64bf4200dbde9.compiler_builtins.cb1056fec953b42b-cgu.348.rcgu.o):(.debug_aranges)
    1330     1330       20     1         /home/ferrite/.rustup/toolchains/nightly-2024-09-17-x86_64-unknown-linux-gnu/lib/rustlib/thumbv7em-none-eabihf/lib/libcompiler_builtins-53d64bf4200dbde9.rlib(compiler_builtins-53d64bf4200dbde9.compiler_builtins.cb1056fec953b42b-cgu.210.rcgu.o):(.debug_aranges)
    1350     1350       28     1         /home/ferrite/.rustup/toolchains/nightly-2024-09-17-x86_64-unknown-linux-gnu/lib/rustlib/thumbv7em-none-eabihf/lib/libcompiler_builtins-53d64bf4200dbde9.rlib(compiler_builtins-53d64bf4200dbde9.compiler_builtins.cb1056fec953b42b-cgu.008.rcgu.o):(.debug_aranges)
       0        0    1a908     1 .debug_ranges
       0        0      100     1         /home/ferrite/rusty1968/initiative/aspeed-rust/target/thumbv7em-none-eabihf/release/deps/libcortex_m-a377b1891f2e56a3.rlib(bin/thumbv7em-none-eabihf.o):(.debug_ranges)
     100      100    19320     1         /home/ferrite/.rustup/toolchains/nightly-2024-09-17-x86_64-unknown-linux-gnu/lib/rustlib/thumbv7em-none-eabihf/lib/libcore-6c7f6233b52d4c10.rlib(core-6c7f6233b52d4c10.core.852c90009024f853-cgu.0.rcgu.o):(.debug_ranges)
   19420    19420       30     1         /home/ferrite/.rustup/toolchains/nightly-2024-09-17-x86_64-unknown-linux-gnu/lib/rustlib/thumbv7em-none-eabihf/lib/libcompiler_builtins-53d64bf4200dbde9.rlib(compiler_builtins-53d64bf4200dbde9.compiler_builtins.cb1056fec953b42b-cgu.080.rcgu.o):(.debug_ranges)
   19450    19450       48     1         /home/ferrite/.rustup/toolchains/nightly-2024-09-17-x86_64-unknown-linux-gnu/lib/rustlib/thumbv7em-none-eabihf/lib/libcompiler_builtins-53d64bf4200dbde9.rlib(compiler_builtins-53d64bf4200dbde9.compiler_builtins.cb1056fec953b42b-cgu.121.rcgu.o):(.debug_ranges)
   19498    19498       18     1         /home/ferrite/.rustup/toolchains/nightly-2024-09-17-x86_64-unknown-linux-gnu/lib/rustlib/thumbv7em-none-eabihf/lib/libcompiler_builtins-53d64bf4200dbde9.rlib(compiler_builtins-53d64bf4200dbde9.compiler_builtins.cb1056fec953b42b-cgu.129.rcgu.o):(.debug_ranges)
   194b0    194b0       a8     1         /home/ferrite/.rustup/toolchains/nightly-2024-09-17-x86_64-unknown-linux-gnu/lib/rustlib/thumbv7em-none-eabihf/lib/libcompiler_builtins-53d64bf4200dbde9.rlib(compiler_builtins-53d64bf4200dbde9.compiler_builtins.cb1056fec953b42b-cgu.159.rcgu.o):(.debug_ranges)
   19558    19558       a8     1         /home/ferrite/.rustup/toolchains/nightly-2024-09-17-x86_64-unknown-linux-gnu/lib/rustlib/thumbv7em-none-eabihf/lib/libcompiler_builtins-53d64bf4200dbde9.rlib(compiler_builtins-53d64bf4200dbde9.compiler_builtins.cb1056fec953b42b-cgu.175.rcgu.o):(.debug_ranges)
   19600    19600       48     1         /home/ferrite/.rustup/toolchains/nightly-2024-09-17-x86_64-unknown-linux-gnu/lib/rustlib/thumbv7em-none-eabihf/lib/libcompiler_builtins-53d64bf4200dbde9.rlib(compiler_builtins-53d64bf4200dbde9.compiler_builtins.cb1056fec953b42b-cgu.228.rcgu.o):(.debug_ranges)
   19648    19648      2a0     1         /home/ferrite/.rustup/toolchains/nightly-2024-09-17-x86_64-unknown-linux-gnu/lib/rustlib/thumbv7em-none-eabihf/lib/libcompiler_builtins-53d64bf4200dbde9.rlib(compiler_builtins-53d64bf4200dbde9.compiler_builtins.cb1056fec953b42b-cgu.010.rcgu.o):(.debug_ranges)
   198e8    198e8      6f0     1         /home/ferrite/.rustup/toolchains/nightly-2024-09-17-x86_64-unknown-linux-gnu/lib/rustlib/thumbv7em-none-eabihf/lib/libcompiler_builtins-53d64bf4200dbde9.rlib(compiler_builtins-53d64bf4200dbde9.compiler_builtins.cb1056fec953b42b-cgu.004.rcgu.o):(.debug_ranges)
   19fd8    19fd8       88     1         /home/ferrite/.rustup/toolchains/nightly-2024-09-17-x86_64-unknown-linux-gnu/lib/rustlib/thumbv7em-none-eabihf/lib/libcompiler_builtins-53d64bf4200dbde9.rlib(compiler_builtins-53d64bf4200dbde9.compiler_builtins.cb1056fec953b42b-cgu.019.rcgu.o):(.debug_ranges)
   1a060    1a060       30     1         /home/ferrite/.rustup/toolchains/nightly-2024-09-17-x86_64-unknown-linux-gnu/lib/rustlib/thumbv7em-none-eabihf/lib/libcompiler_builtins-53d64bf4200dbde9.rlib(compiler_builtins-53d64bf4200dbde9.compiler_builtins.cb1056fec953b42b-cgu.248.rcgu.o):(.debug_ranges)
   1a090    1a090      4a8     1         /home/ferrite/.rustup/toolchains/nightly-2024-09-17-x86_64-unknown-linux-gnu/lib/rustlib/thumbv7em-none-eabihf/lib/libcompiler_builtins-53d64bf4200dbde9.rlib(compiler_builtins-53d64bf4200dbde9.compiler_builtins.cb1056fec953b42b-cgu.005.rcgu.o):(.debug_ranges)
   1a538    1a538       78     1         /home/ferrite/.rustup/toolchains/nightly-2024-09-17-x86_64-unknown-linux-gnu/lib/rustlib/thumbv7em-none-eabihf/lib/libcompiler_builtins-53d64bf4200dbde9.rlib(compiler_builtins-53d64bf4200dbde9.compiler_builtins.cb1056fec953b42b-cgu.279.rcgu.o):(.debug_ranges)
   1a5b0    1a5b0       60     1         /home/ferrite/.rustup/toolchains/nightly-2024-09-17-x86_64-unknown-linux-gnu/lib/rustlib/thumbv7em-none-eabihf/lib/libcompiler_builtins-53d64bf4200dbde9.rlib(compiler_builtins-53d64bf4200dbde9.compiler_builtins.cb1056fec953b42b-cgu.317.rcgu.o):(.debug_ranges)
   1a610    1a610       30     1         /home/ferrite/.rustup/toolchains/nightly-2024-09-17-x86_64-unknown-linux-gnu/lib/rustlib/thumbv7em-none-eabihf/lib/libcompiler_builtins-53d64bf4200dbde9.rlib(compiler_builtins-53d64bf4200dbde9.compiler_builtins.cb1056fec953b42b-cgu.324.rcgu.o):(.debug_ranges)
   1a640    1a640       48     1         /home/ferrite/.rustup/toolchains/nightly-2024-09-17-x86_64-unknown-linux-gnu/lib/rustlib/thumbv7em-none-eabihf/lib/libcompiler_builtins-53d64bf4200dbde9.rlib(compiler_builtins-53d64bf4200dbde9.compiler_builtins.cb1056fec953b42b-cgu.335.rcgu.o):(.debug_ranges)
   1a688    1a688      280     1         /home/ferrite/.rustup/toolchains/nightly-2024-09-17-x86_64-unknown-linux-gnu/lib/rustlib/thumbv7em-none-eabihf/lib/libcompiler_builtins-53d64bf4200dbde9.rlib(compiler_builtins-53d64bf4200dbde9.compiler_builtins.cb1056fec953b42b-cgu.008.rcgu.o):(.debug_ranges)
       0        0    3c5bf     1 .debug_str
       0        0    3c5bf     1         <internal>:(.debug_str)
       0        0      2be     1 .debug_pubnames
       0        0      2be     1         /home/ferrite/rusty1968/initiative/aspeed-rust/target/thumbv7em-none-eabihf/release/deps/libcortex_m-a377b1891f2e56a3.rlib(bin/thumbv7em-none-eabihf.o):(.debug_pubnames)
       0        0       47     1 .debug_pubtypes
       0        0       47     1         /home/ferrite/rusty1968/initiative/aspeed-rust/target/thumbv7em-none-eabihf/release/deps/libcortex_m-a377b1891f2e56a3.rlib(bin/thumbv7em-none-eabihf.o):(.debug_pubtypes)
       0        0    20eb2     1 .debug_line
       0        0      4ad     1         /home/ferrite/rusty1968/initiative/aspeed-rust/target/thumbv7em-none-eabihf/release/deps/libcortex_m-a377b1891f2e56a3.rlib(bin/thumbv7em-none-eabihf.o):(.debug_line)
     4ad      4ad    1c0bb     1         /home/ferrite/.rustup/toolchains/nightly-2024-09-17-x86_64-unknown-linux-gnu/lib/rustlib/thumbv7em-none-eabihf/lib/libcore-6c7f6233b52d4c10.rlib(core-6c7f6233b52d4c10.core.852c90009024f853-cgu.0.rcgu.o):(.debug_line)
   1c568    1c568       ab     1         /home/ferrite/.rustup/toolchains/nightly-2024-09-17-x86_64-unknown-linux-gnu/lib/rustlib/thumbv7em-none-eabihf/lib/libcompiler_builtins-53d64bf4200dbde9.rlib(compiler_builtins-53d64bf4200dbde9.compiler_builtins.cb1056fec953b42b-cgu.080.rcgu.o):(.debug_line)
   1c613    1c613      223     1         /home/ferrite/.rustup/toolchains/nightly-2024-09-17-x86_64-unknown-linux-gnu/lib/rustlib/thumbv7em-none-eabihf/lib/libcompiler_builtins-53d64bf4200dbde9.rlib(compiler_builtins-53d64bf4200dbde9.compiler_builtins.cb1056fec953b42b-cgu.121.rcgu.o):(.debug_line)
   1c836    1c836      221     1         /home/ferrite/.rustup/toolchains/nightly-2024-09-17-x86_64-unknown-linux-gnu/lib/rustlib/thumbv7em-none-eabihf/lib/libcompiler_builtins-53d64bf4200dbde9.rlib(compiler_builtins-53d64bf4200dbde9.compiler_builtins.cb1056fec953b42b-cgu.129.rcgu.o):(.debug_line)
   1ca57    1ca57      232     1         /home/ferrite/.rustup/toolchains/nightly-2024-09-17-x86_64-unknown-linux-gnu/lib/rustlib/thumbv7em-none-eabihf/lib/libcompiler_builtins-53d64bf4200dbde9.rlib(compiler_builtins-53d64bf4200dbde9.compiler_builtins.cb1056fec953b42b-cgu.159.rcgu.o):(.debug_line)
   1cc89    1cc89      232     1         /home/ferrite/.rustup/toolchains/nightly-2024-09-17-x86_64-unknown-linux-gnu/lib/rustlib/thumbv7em-none-eabihf/lib/libcompiler_builtins-53d64bf4200dbde9.rlib(compiler_builtins-53d64bf4200dbde9.compiler_builtins.cb1056fec953b42b-cgu.175.rcgu.o):(.debug_line)
   1cebb    1cebb      244     1         /home/ferrite/.rustup/toolchains/nightly-2024-09-17-x86_64-unknown-linux-gnu/lib/rustlib/thumbv7em-none-eabihf/lib/libcompiler_builtins-53d64bf4200dbde9.rlib(compiler_builtins-53d64bf4200dbde9.compiler_builtins.cb1056fec953b42b-cgu.228.rcgu.o):(.debug_line)
   1d0ff    1d0ff       7b     1         /home/ferrite/.rustup/toolchains/nightly-2024-09-17-x86_64-unknown-linux-gnu/lib/rustlib/thumbv7em-none-eabihf/lib/libcompiler_builtins-53d64bf4200dbde9.rlib(compiler_builtins-53d64bf4200dbde9.compiler_builtins.cb1056fec953b42b-cgu.235.rcgu.o):(.debug_line)
   1d17a    1d17a      d92     1         /home/ferrite/.rustup/toolchains/nightly-2024-09-17-x86_64-unknown-linux-gnu/lib/rustlib/thumbv7em-none-eabihf/lib/libcompiler_builtins-53d64bf4200dbde9.rlib(compiler_builtins-53d64bf4200dbde9.compiler_builtins.cb1056fec953b42b-cgu.010.rcgu.o):(.debug_line)
   1df0c    1df0c       42     1         /home/ferrite/.rustup/toolchains/nightly-2024-09-17-x86_64-unknown-linux-gnu/lib/rustlib/thumbv7em-none-eabihf/lib/libcompiler_builtins-53d64bf4200dbde9.rlib(compiler_builtins-53d64bf4200dbde9.compiler_builtins.cb1056fec953b42b-cgu.237.rcgu.o):(.debug_line)
   1df4e    1df4e      d89     1         /home/ferrite/.rustup/toolchains/nightly-2024-09-17-x86_64-unknown-linux-gnu/lib/rustlib/thumbv7em-none-eabihf/lib/libcompiler_builtins-53d64bf4200dbde9.rlib(compiler_builtins-53d64bf4200dbde9.compiler_builtins.cb1056fec953b42b-cgu.004.rcgu.o):(.debug_line)
   1ecd7    1ecd7      3a4     1         /home/ferrite/.rustup/toolchains/nightly-2024-09-17-x86_64-unknown-linux-gnu/lib/rustlib/thumbv7em-none-eabihf/lib/libcompiler_builtins-53d64bf4200dbde9.rlib(compiler_builtins-53d64bf4200dbde9.compiler_builtins.cb1056fec953b42b-cgu.019.rcgu.o):(.debug_line)
   1f07b    1f07b      204     1         /home/ferrite/.rustup/toolchains/nightly-2024-09-17-x86_64-unknown-linux-gnu/lib/rustlib/thumbv7em-none-eabihf/lib/libcompiler_builtins-53d64bf4200dbde9.rlib(compiler_builtins-53d64bf4200dbde9.compiler_builtins.cb1056fec953b42b-cgu.248.rcgu.o):(.debug_line)
   1f27f    1f27f       7b     1         /home/ferrite/.rustup/toolchains/nightly-2024-09-17-x86_64-unknown-linux-gnu/lib/rustlib/thumbv7em-none-eabihf/lib/libcompiler_builtins-53d64bf4200dbde9.rlib(compiler_builtins-53d64bf4200dbde9.compiler_builtins.cb1056fec953b42b-cgu.251.rcgu.o):(.debug_line)
   1f2fa    1f2fa       49     1         /home/ferrite/.rustup/toolchains/nightly-2024-09-17-x86_64-unknown-linux-gnu/lib/rustlib/thumbv7em-none-eabihf/lib/libcompiler_builtins-53d64bf4200dbde9.rlib(compiler_builtins-53d64bf4200dbde9.compiler_builtins.cb1056fec953b42b-cgu.269.rcgu.o):(.debug_line)
   1f343    1f343      8f0     1         /home/ferrite/.rustup/toolchains/nightly-2024-09-17-x86_64-unknown-linux-gnu/lib/rustlib/thumbv7em-none-eabihf/lib/libcompiler_builtins-53d64bf4200dbde9.rlib(compiler_builtins-53d64bf4200dbde9.compiler_builtins.cb1056fec953b42b-cgu.005.rcgu.o):(.debug_line)
   1fc33    1fc33      2e7     1         /home/ferrite/.rustup/toolchains/nightly-2024-09-17-x86_64-unknown-linux-gnu/lib/rustlib/thumbv7em-none-eabihf/lib/libcompiler_builtins-53d64bf4200dbde9.rlib(compiler_builtins-53d64bf4200dbde9.compiler_builtins.cb1056fec953b42b-cgu.279.rcgu.o):(.debug_line)
   1ff1a    1ff1a      2e9     1         /home/ferrite/.rustup/toolchains/nightly-2024-09-17-x86_64-unknown-linux-gnu/lib/rustlib/thumbv7em-none-eabihf/lib/libcompiler_builtins-53d64bf4200dbde9.rlib(compiler_builtins-53d64bf4200dbde9.compiler_builtins.cb1056fec953b42b-cgu.317.rcgu.o):(.debug_line)
   20203    20203      1b2     1         /home/ferrite/.rustup/toolchains/nightly-2024-09-17-x86_64-unknown-linux-gnu/lib/rustlib/thumbv7em-none-eabihf/lib/libcompiler_builtins-53d64bf4200dbde9.rlib(compiler_builtins-53d64bf4200dbde9.compiler_builtins.cb1056fec953b42b-cgu.324.rcgu.o):(.debug_line)
   203b5    203b5      1d4     1         /home/ferrite/.rustup/toolchains/nightly-2024-09-17-x86_64-unknown-linux-gnu/lib/rustlib/thumbv7em-none-eabihf/lib/libcompiler_builtins-53d64bf4200dbde9.rlib(compiler_builtins-53d64bf4200dbde9.compiler_builtins.cb1056fec953b42b-cgu.335.rcgu.o):(.debug_line)
   20589    20589      215     1         /home/ferrite/.rustup/toolchains/nightly-2024-09-17-x86_64-unknown-linux-gnu/lib/rustlib/thumbv7em-none-eabihf/lib/libcompiler_builtins-53d64bf4200dbde9.rlib(compiler_builtins-53d64bf4200dbde9.compiler_builtins.cb1056fec953b42b-cgu.337.rcgu.o):(.debug_line)
   2079e    2079e       4b     1         /home/ferrite/.rustup/toolchains/nightly-2024-09-17-x86_64-unknown-linux-gnu/lib/rustlib/thumbv7em-none-eabihf/lib/libcompiler_builtins-53d64bf4200dbde9.rlib(compiler_builtins-53d64bf4200dbde9.compiler_builtins.cb1056fec953b42b-cgu.348.rcgu.o):(.debug_line)
   207e9    207e9       99     1         /home/ferrite/.rustup/toolchains/nightly-2024-09-17-x86_64-unknown-linux-gnu/lib/rustlib/thumbv7em-none-eabihf/lib/libcompiler_builtins-53d64bf4200dbde9.rlib(compiler_builtins-53d64bf4200dbde9.compiler_builtins.cb1056fec953b42b-cgu.210.rcgu.o):(.debug_line)
   20882    20882      630     1         /home/ferrite/.rustup/toolchains/nightly-2024-09-17-x86_64-unknown-linux-gnu/lib/rustlib/thumbv7em-none-eabihf/lib/libcompiler_builtins-53d64bf4200dbde9.rlib(compiler_builtins-53d64bf4200dbde9.compiler_builtins.cb1056fec953b42b-cgu.008.rcgu.o):(.debug_line)
       0        0     34a0     4 .symtab
       0        0     34a0     4         <internal>:(.symtab)
       0        0       f1     1 .shstrtab
       0        0       f1     1         <internal>:(.shstrtab)
       0        0     8e86     1 .strtab
       0        0     8e86     1         <internal>:(.strtab)
